
re_01.exe:     file format pei-x86-64


Disassembly of section .rsrc:

0000000140005000 <.rsrc>:
	...
   14000500c:	01 00                	add    DWORD PTR [rax],eax
   14000500e:	01 00                	add    DWORD PTR [rax],eax
   140005010:	a0 00 00 80 20 00 00 	movabs al,ds:0x1880000020800000
   140005017:	80 18 
   140005019:	00 00                	add    BYTE PTR [rax],al
   14000501b:	00 38                	add    BYTE PTR [rax],bh
   14000501d:	00 00                	add    BYTE PTR [rax],al
   14000501f:	80 00 00             	add    BYTE PTR [rax],0x0
	...
   14000502e:	01 00                	add    DWORD PTR [rax],eax
   140005030:	6b 00 00             	imul   eax,DWORD PTR [rax],0x0
   140005033:	00 50 00             	add    BYTE PTR [rax+0x0],dl
   140005036:	00 80 00 00 00 00    	add    BYTE PTR [rax+0x0],al
	...
   140005044:	00 00                	add    BYTE PTR [rax],al
   140005046:	01 00                	add    DWORD PTR [rax],eax
   140005048:	01 00                	add    DWORD PTR [rax],eax
   14000504a:	00 00                	add    BYTE PTR [rax],al
   14000504c:	68 00 00 80 00       	push   0x800000
	...
   14000505d:	00 01                	add    BYTE PTR [rcx],al
   14000505f:	00 09                	add    BYTE PTR [rcx],cl
   140005061:	04 00                	add    al,0x0
   140005063:	00 80 00 00 00 00    	add    BYTE PTR [rax+0x0],al
	...
   140005075:	00 01                	add    BYTE PTR [rcx],al
   140005077:	00 09                	add    BYTE PTR [rcx],cl
   140005079:	04 00                	add    al,0x0
   14000507b:	00 90 00 00 00 c0    	add    BYTE PTR [rax-0x40000000],dl
   140005081:	50                   	push   rax
   140005082:	00 00                	add    BYTE PTR [rax],al
   140005084:	2c 53                	sub    al,0x53
	...
   14000508e:	00 00                	add    BYTE PTR [rax],al
   140005090:	f0 a3 00 00 7d 01 00 	lock movabs ds:0x17d0000,eax
   140005097:	00 00 00 
   14000509a:	00 00                	add    BYTE PTR [rax],al
   14000509c:	00 00                	add    BYTE PTR [rax],al
   14000509e:	00 00                	add    BYTE PTR [rax],al
   1400050a0:	0f 00 48 00          	str    WORD PTR [rax+0x0]
   1400050a4:	41 00 43 00          	add    BYTE PTR [r11+0x0],al
   1400050a8:	4b 00 46 00          	rex.WXB add BYTE PTR [r14+0x0],al
   1400050ac:	4f 00 52 00          	rex.WRXB add BYTE PTR [r10+0x0],r10b
   1400050b0:	43 00 45 00          	rex.XB add BYTE PTR [r13+0x0],al
   1400050b4:	53                   	push   rbx
   1400050b5:	00 5f 00             	add    BYTE PTR [rdi+0x0],bl
   1400050b8:	32 00                	xor    al,BYTE PTR [rax]
   1400050ba:	30 00                	xor    BYTE PTR [rax],al
   1400050bc:	32 00                	xor    al,BYTE PTR [rax]
   1400050be:	32 00                	xor    al,BYTE PTR [rax]
   1400050c0:	e8 00 00 00 00       	call   0x1400050c5
   1400050c5:	59                   	pop    rcx
   1400050c6:	49 89 c8             	mov    r8,rcx
   1400050c9:	48 81 c1 23 0b 00 00 	add    rcx,0xb23
   1400050d0:	ba 45 77 62 30       	mov    edx,0x30627745
   1400050d5:	49 81 c0 23 53 00 00 	add    r8,0x5323
   1400050dc:	41 b9 04 00 00 00    	mov    r9d,0x4
   1400050e2:	56                   	push   rsi
   1400050e3:	48 89 e6             	mov    rsi,rsp
   1400050e6:	48 83 e4 f0          	and    rsp,0xfffffffffffffff0
   1400050ea:	48 83 ec 30          	sub    rsp,0x30
   1400050ee:	c7 44 24 20 00 00 00 	mov    DWORD PTR [rsp+0x20],0x0
   1400050f5:	00 
   1400050f6:	e8 05 00 00 00       	call   0x140005100
   1400050fb:	48 89 f4             	mov    rsp,rsi
   1400050fe:	5e                   	pop    rsi
   1400050ff:	c3                   	ret    
   140005100:	48 8b c4             	mov    rax,rsp
   140005103:	48 89 58 08          	mov    QWORD PTR [rax+0x8],rbx
   140005107:	44 89 48 20          	mov    DWORD PTR [rax+0x20],r9d
   14000510b:	4c 89 40 18          	mov    QWORD PTR [rax+0x18],r8
   14000510f:	89 50 10             	mov    DWORD PTR [rax+0x10],edx
   140005112:	55                   	push   rbp
   140005113:	56                   	push   rsi
   140005114:	57                   	push   rdi
   140005115:	41 54                	push   r12
   140005117:	41 55                	push   r13
   140005119:	41 56                	push   r14
   14000511b:	41 57                	push   r15
   14000511d:	48 8d 6c 24 90       	lea    rbp,[rsp-0x70]
   140005122:	48 81 ec 70 01 00 00 	sub    rsp,0x170
   140005129:	45 33 ff             	xor    r15d,r15d
   14000512c:	c7 45 d8 6b 00 65 00 	mov    DWORD PTR [rbp-0x28],0x65006b
   140005133:	48 8b f1             	mov    rsi,rcx
   140005136:	4c 89 7d f8          	mov    QWORD PTR [rbp-0x8],r15
   14000513a:	b9 13 9c bf bd       	mov    ecx,0xbdbf9c13
   14000513f:	4c 89 7d c8          	mov    QWORD PTR [rbp-0x38],r15
   140005143:	4c 89 7d 08          	mov    QWORD PTR [rbp+0x8],r15
   140005147:	45 8d 4f 65          	lea    r9d,[r15+0x65]
   14000514b:	4c 89 7d 10          	mov    QWORD PTR [rbp+0x10],r15
   14000514f:	44 88 4d bc          	mov    BYTE PTR [rbp-0x44],r9b
   140005153:	44 88 4d a2          	mov    BYTE PTR [rbp-0x5e],r9b
   140005157:	4c 89 7d 00          	mov    QWORD PTR [rbp+0x0],r15
   14000515b:	4c 89 7d f0          	mov    QWORD PTR [rbp-0x10],r15
   14000515f:	4c 89 7d 18          	mov    QWORD PTR [rbp+0x18],r15
   140005163:	44 89 7d 24          	mov    DWORD PTR [rbp+0x24],r15d
   140005167:	44 89 7c 24 2c       	mov    DWORD PTR [rsp+0x2c],r15d
   14000516c:	c7 45 dc 72 00 6e 00 	mov    DWORD PTR [rbp-0x24],0x6e0072
   140005173:	c7 45 e0 65 00 6c 00 	mov    DWORD PTR [rbp-0x20],0x6c0065
   14000517a:	c7 45 e4 33 00 32 00 	mov    DWORD PTR [rbp-0x1c],0x320033
   140005181:	c7 45 e8 2e 00 64 00 	mov    DWORD PTR [rbp-0x18],0x64002e
   140005188:	c7 45 ec 6c 00 6c 00 	mov    DWORD PTR [rbp-0x14],0x6c006c
   14000518f:	c7 44 24 40 53 6c 65 	mov    DWORD PTR [rsp+0x40],0x65656c53
   140005196:	65 
   140005197:	c6 44 24 44 70       	mov    BYTE PTR [rsp+0x44],0x70
   14000519c:	c7 44 24 58 4c 6f 61 	mov    DWORD PTR [rsp+0x58],0x64616f4c
   1400051a3:	64 
   1400051a4:	c7 44 24 5c 4c 69 62 	mov    DWORD PTR [rsp+0x5c],0x7262694c
   1400051ab:	72 
   1400051ac:	c7 44 24 60 61 72 79 	mov    DWORD PTR [rsp+0x60],0x41797261
   1400051b3:	41 
   1400051b4:	c7 44 24 48 56 69 72 	mov    DWORD PTR [rsp+0x48],0x74726956
   1400051bb:	74 
   1400051bc:	c7 44 24 4c 75 61 6c 	mov    DWORD PTR [rsp+0x4c],0x416c6175
   1400051c3:	41 
   1400051c4:	c7 44 24 50 6c 6c 6f 	mov    DWORD PTR [rsp+0x50],0x636f6c6c
   1400051cb:	63 
   1400051cc:	c7 44 24 68 56 69 72 	mov    DWORD PTR [rsp+0x68],0x74726956
   1400051d3:	74 
   1400051d4:	c7 44 24 6c 75 61 6c 	mov    DWORD PTR [rsp+0x6c],0x506c6175
   1400051db:	50 
   1400051dc:	c7 44 24 70 72 6f 74 	mov    DWORD PTR [rsp+0x70],0x65746f72
   1400051e3:	65 
   1400051e4:	66 c7 44 24 74 63 74 	mov    WORD PTR [rsp+0x74],0x7463
   1400051eb:	c7 45 a8 46 6c 75 73 	mov    DWORD PTR [rbp-0x58],0x73756c46
   1400051f2:	c7 45 ac 68 49 6e 73 	mov    DWORD PTR [rbp-0x54],0x736e4968
   1400051f9:	c7 45 b0 74 72 75 63 	mov    DWORD PTR [rbp-0x50],0x63757274
   140005200:	c7 45 b4 74 69 6f 6e 	mov    DWORD PTR [rbp-0x4c],0x6e6f6974
   140005207:	c7 45 b8 43 61 63 68 	mov    DWORD PTR [rbp-0x48],0x68636143
   14000520e:	c7 44 24 78 47 65 74 	mov    DWORD PTR [rsp+0x78],0x4e746547
   140005215:	4e 
   140005216:	c7 44 24 7c 61 74 69 	mov    DWORD PTR [rsp+0x7c],0x76697461
   14000521d:	76 
   14000521e:	c7 45 80 65 53 79 73 	mov    DWORD PTR [rbp-0x80],0x73795365
   140005225:	c7 45 84 74 65 6d 49 	mov    DWORD PTR [rbp-0x7c],0x496d6574
   14000522c:	66 c7 45 88 6e 66    	mov    WORD PTR [rbp-0x78],0x666e
   140005232:	c6 45 8a 6f          	mov    BYTE PTR [rbp-0x76],0x6f
   140005236:	c7 45 90 52 74 6c 41 	mov    DWORD PTR [rbp-0x70],0x416c7452
   14000523d:	c7 45 94 64 64 46 75 	mov    DWORD PTR [rbp-0x6c],0x75466464
   140005244:	c7 45 98 6e 63 74 69 	mov    DWORD PTR [rbp-0x68],0x6974636e
   14000524b:	c7 45 9c 6f 6e 54 61 	mov    DWORD PTR [rbp-0x64],0x61546e6f
   140005252:	66 c7 45 a0 62 6c    	mov    WORD PTR [rbp-0x60],0x6c62
   140005258:	e8 7f 08 00 00       	call   0x140005adc
   14000525d:	b9 b5 41 d9 5e       	mov    ecx,0x5ed941b5
   140005262:	48 8b d8             	mov    rbx,rax
   140005265:	e8 72 08 00 00       	call   0x140005adc
   14000526a:	4c 8b e8             	mov    r13,rax
   14000526d:	48 89 45 d0          	mov    QWORD PTR [rbp-0x30],rax
   140005271:	48 8d 45 d8          	lea    rax,[rbp-0x28]
   140005275:	c7 45 20 18 00 18 00 	mov    DWORD PTR [rbp+0x20],0x180018
   14000527c:	4c 8d 4c 24 38       	lea    r9,[rsp+0x38]
   140005281:	48 89 45 28          	mov    QWORD PTR [rbp+0x28],rax
   140005285:	4c 8d 45 20          	lea    r8,[rbp+0x20]
   140005289:	33 d2                	xor    edx,edx
   14000528b:	33 c9                	xor    ecx,ecx
   14000528d:	ff d3                	call   rbx
   14000528f:	48 8b 4c 24 38       	mov    rcx,QWORD PTR [rsp+0x38]
   140005294:	48 8d 44 24 48       	lea    rax,[rsp+0x48]
   140005299:	45 33 c0             	xor    r8d,r8d
   14000529c:	48 89 44 24 30       	mov    QWORD PTR [rsp+0x30],rax
   1400052a1:	4c 8d 4d c8          	lea    r9,[rbp-0x38]
   1400052a5:	c7 44 24 28 0c 00 0c 	mov    DWORD PTR [rsp+0x28],0xc000c
   1400052ac:	00 
   1400052ad:	48 8d 54 24 28       	lea    rdx,[rsp+0x28]
   1400052b2:	41 ff d5             	call   r13
   1400052b5:	48 8b 4c 24 38       	mov    rcx,QWORD PTR [rsp+0x38]
   1400052ba:	48 8d 44 24 68       	lea    rax,[rsp+0x68]
   1400052bf:	45 33 c0             	xor    r8d,r8d
   1400052c2:	48 89 44 24 30       	mov    QWORD PTR [rsp+0x30],rax
   1400052c7:	4c 8d 4d 00          	lea    r9,[rbp+0x0]
   1400052cb:	c7 44 24 28 0e 00 0e 	mov    DWORD PTR [rsp+0x28],0xe000e
   1400052d2:	00 
   1400052d3:	48 8d 54 24 28       	lea    rdx,[rsp+0x28]
   1400052d8:	41 ff d5             	call   r13
   1400052db:	48 8d 45 a8          	lea    rax,[rbp-0x58]
   1400052df:	c7 44 24 28 15 00 15 	mov    DWORD PTR [rsp+0x28],0x150015
   1400052e6:	00 
   1400052e7:	48 8b 4c 24 38       	mov    rcx,QWORD PTR [rsp+0x38]
   1400052ec:	4c 8d 4d 08          	lea    r9,[rbp+0x8]
   1400052f0:	45 33 c0             	xor    r8d,r8d
   1400052f3:	48 89 44 24 30       	mov    QWORD PTR [rsp+0x30],rax
   1400052f8:	48 8d 54 24 28       	lea    rdx,[rsp+0x28]
   1400052fd:	41 ff d5             	call   r13
   140005300:	48 8b 4c 24 38       	mov    rcx,QWORD PTR [rsp+0x38]
   140005305:	48 8d 44 24 78       	lea    rax,[rsp+0x78]
   14000530a:	45 33 c0             	xor    r8d,r8d
   14000530d:	48 89 44 24 30       	mov    QWORD PTR [rsp+0x30],rax
   140005312:	4c 8d 4d 10          	lea    r9,[rbp+0x10]
   140005316:	c7 44 24 28 13 00 13 	mov    DWORD PTR [rsp+0x28],0x130013
   14000531d:	00 
   14000531e:	48 8d 54 24 28       	lea    rdx,[rsp+0x28]
   140005323:	41 ff d5             	call   r13
   140005326:	48 8b 4c 24 38       	mov    rcx,QWORD PTR [rsp+0x38]
   14000532b:	48 8d 44 24 40       	lea    rax,[rsp+0x40]
   140005330:	45 33 c0             	xor    r8d,r8d
   140005333:	48 89 44 24 30       	mov    QWORD PTR [rsp+0x30],rax
   140005338:	4c 8d 4d f0          	lea    r9,[rbp-0x10]
   14000533c:	c7 44 24 28 05 00 05 	mov    DWORD PTR [rsp+0x28],0x50005
   140005343:	00 
   140005344:	48 8d 54 24 28       	lea    rdx,[rsp+0x28]
   140005349:	41 ff d5             	call   r13
   14000534c:	48 8b 4c 24 38       	mov    rcx,QWORD PTR [rsp+0x38]
   140005351:	48 8d 45 90          	lea    rax,[rbp-0x70]
   140005355:	45 33 c0             	xor    r8d,r8d
   140005358:	48 89 44 24 30       	mov    QWORD PTR [rsp+0x30],rax
   14000535d:	4c 8d 4d 18          	lea    r9,[rbp+0x18]
   140005361:	c7 44 24 28 13 00 13 	mov    DWORD PTR [rsp+0x28],0x130013
   140005368:	00 
   140005369:	48 8d 54 24 28       	lea    rdx,[rsp+0x28]
   14000536e:	41 ff d5             	call   r13
   140005371:	48 8b 4c 24 38       	mov    rcx,QWORD PTR [rsp+0x38]
   140005376:	48 8d 44 24 58       	lea    rax,[rsp+0x58]
   14000537b:	45 33 c0             	xor    r8d,r8d
   14000537e:	48 89 44 24 30       	mov    QWORD PTR [rsp+0x30],rax
   140005383:	4c 8d 4d f8          	lea    r9,[rbp-0x8]
   140005387:	c7 44 24 28 0c 00 0c 	mov    DWORD PTR [rsp+0x28],0xc000c
   14000538e:	00 
   14000538f:	48 8d 54 24 28       	lea    rdx,[rsp+0x28]
   140005394:	41 ff d5             	call   r13
   140005397:	4c 39 7d c8          	cmp    QWORD PTR [rbp-0x38],r15
   14000539b:	0f 84 1d 07 00 00    	je     0x140005abe
   1400053a1:	4c 39 7d 00          	cmp    QWORD PTR [rbp+0x0],r15
   1400053a5:	0f 84 13 07 00 00    	je     0x140005abe
   1400053ab:	4c 39 7d f0          	cmp    QWORD PTR [rbp-0x10],r15
   1400053af:	0f 84 09 07 00 00    	je     0x140005abe
   1400053b5:	4c 39 7d 08          	cmp    QWORD PTR [rbp+0x8],r15
   1400053b9:	0f 84 ff 06 00 00    	je     0x140005abe
   1400053bf:	48 8b 55 10          	mov    rdx,QWORD PTR [rbp+0x10]
   1400053c3:	48 85 d2             	test   rdx,rdx
   1400053c6:	0f 84 f2 06 00 00    	je     0x140005abe
   1400053cc:	48 63 7e 3c          	movsxd rdi,DWORD PTR [rsi+0x3c]
   1400053d0:	48 03 fe             	add    rdi,rsi
   1400053d3:	81 3f 50 45 00 00    	cmp    DWORD PTR [rdi],0x4550
   1400053d9:	0f 85 df 06 00 00    	jne    0x140005abe
   1400053df:	b8 64 86 00 00       	mov    eax,0x8664
   1400053e4:	66 39 47 04          	cmp    WORD PTR [rdi+0x4],ax
   1400053e8:	0f 85 d0 06 00 00    	jne    0x140005abe
   1400053ee:	45 8d 4f 01          	lea    r9d,[r15+0x1]
   1400053f2:	44 84 4f 38          	test   BYTE PTR [rdi+0x38],r9b
   1400053f6:	0f 85 c2 06 00 00    	jne    0x140005abe
   1400053fc:	0f b7 4f 14          	movzx  ecx,WORD PTR [rdi+0x14]
   140005400:	41 8b df             	mov    ebx,r15d
   140005403:	48 83 c1 24          	add    rcx,0x24
   140005407:	66 44 3b 7f 06       	cmp    r15w,WORD PTR [rdi+0x6]
   14000540c:	73 25                	jae    0x140005433
   14000540e:	44 0f b7 47 06       	movzx  r8d,WORD PTR [rdi+0x6]
   140005413:	48 03 cf             	add    rcx,rdi
   140005416:	44 39 79 04          	cmp    DWORD PTR [rcx+0x4],r15d
   14000541a:	8b 47 38             	mov    eax,DWORD PTR [rdi+0x38]
   14000541d:	0f 45 41 04          	cmovne eax,DWORD PTR [rcx+0x4]
   140005421:	03 01                	add    eax,DWORD PTR [rcx]
   140005423:	48 8d 49 28          	lea    rcx,[rcx+0x28]
   140005427:	3b c3                	cmp    eax,ebx
   140005429:	0f 46 c3             	cmovbe eax,ebx
   14000542c:	8b d8                	mov    ebx,eax
   14000542e:	4d 2b c1             	sub    r8,r9
   140005431:	75 e3                	jne    0x140005416
   140005433:	48 8d 4d 38          	lea    rcx,[rbp+0x38]
   140005437:	ff d2                	call   rdx
   140005439:	8b 55 3c             	mov    edx,DWORD PTR [rbp+0x3c]
   14000543c:	44 8b c2             	mov    r8d,edx
   14000543f:	44 8d 72 ff          	lea    r14d,[rdx-0x1]
   140005443:	f7 da                	neg    edx
   140005445:	44 03 77 50          	add    r14d,DWORD PTR [rdi+0x50]
   140005449:	49 8d 48 ff          	lea    rcx,[r8-0x1]
   14000544d:	8b c2                	mov    eax,edx
   14000544f:	4c 23 f0             	and    r14,rax
   140005452:	8b c3                	mov    eax,ebx
   140005454:	48 03 c8             	add    rcx,rax
   140005457:	49 8d 40 ff          	lea    rax,[r8-0x1]
   14000545b:	48 f7 d0             	not    rax
   14000545e:	48 23 c8             	and    rcx,rax
   140005461:	4c 3b f1             	cmp    r14,rcx
   140005464:	0f 85 54 06 00 00    	jne    0x140005abe
   14000546a:	48 8b 4f 30          	mov    rcx,QWORD PTR [rdi+0x30]
   14000546e:	41 bc 00 30 00 00    	mov    r12d,0x3000
   140005474:	45 8b c4             	mov    r8d,r12d
   140005477:	41 b9 04 00 00 00    	mov    r9d,0x4
   14000547d:	49 8b d6             	mov    rdx,r14
   140005480:	ff 55 c8             	call   QWORD PTR [rbp-0x38]
   140005483:	48 8b d8             	mov    rbx,rax
   140005486:	48 85 c0             	test   rax,rax
   140005489:	75 12                	jne    0x14000549d
   14000548b:	44 8d 48 04          	lea    r9d,[rax+0x4]
   14000548f:	45 8b c4             	mov    r8d,r12d
   140005492:	49 8b d6             	mov    rdx,r14
   140005495:	33 c9                	xor    ecx,ecx
   140005497:	ff 55 c8             	call   QWORD PTR [rbp-0x38]
   14000549a:	48 8b d8             	mov    rbx,rax
   14000549d:	44 8b a5 d0 00 00 00 	mov    r12d,DWORD PTR [rbp+0xd0]
   1400054a4:	41 bb 01 00 00 00    	mov    r11d,0x1
   1400054aa:	45 84 e3             	test   r11b,r12b
   1400054ad:	74 1d                	je     0x1400054cc
   1400054af:	8b 46 3c             	mov    eax,DWORD PTR [rsi+0x3c]
   1400054b2:	89 43 3c             	mov    DWORD PTR [rbx+0x3c],eax
   1400054b5:	8b 56 3c             	mov    edx,DWORD PTR [rsi+0x3c]
   1400054b8:	eb 0b                	jmp    0x1400054c5
   1400054ba:	8b ca                	mov    ecx,edx
   1400054bc:	41 03 d3             	add    edx,r11d
   1400054bf:	8a 04 31             	mov    al,BYTE PTR [rcx+rsi*1]
   1400054c2:	88 04 19             	mov    BYTE PTR [rcx+rbx*1],al
   1400054c5:	3b 57 54             	cmp    edx,DWORD PTR [rdi+0x54]
   1400054c8:	72 f0                	jb     0x1400054ba
   1400054ca:	eb 19                	jmp    0x1400054e5
   1400054cc:	41 8b d7             	mov    edx,r15d
   1400054cf:	44 39 7f 54          	cmp    DWORD PTR [rdi+0x54],r15d
   1400054d3:	76 10                	jbe    0x1400054e5
   1400054d5:	8b ca                	mov    ecx,edx
   1400054d7:	41 03 d3             	add    edx,r11d
   1400054da:	8a 04 31             	mov    al,BYTE PTR [rcx+rsi*1]
   1400054dd:	88 04 19             	mov    BYTE PTR [rcx+rbx*1],al
   1400054e0:	3b 57 54             	cmp    edx,DWORD PTR [rdi+0x54]
   1400054e3:	72 f0                	jb     0x1400054d5
   1400054e5:	48 63 7b 3c          	movsxd rdi,DWORD PTR [rbx+0x3c]
   1400054e9:	45 8b d7             	mov    r10d,r15d
   1400054ec:	48 03 fb             	add    rdi,rbx
   1400054ef:	48 89 7d 30          	mov    QWORD PTR [rbp+0x30],rdi
   1400054f3:	44 0f b7 47 14       	movzx  r8d,WORD PTR [rdi+0x14]
   1400054f8:	49 83 c0 28          	add    r8,0x28
   1400054fc:	66 44 3b 7f 06       	cmp    r15w,WORD PTR [rdi+0x6]
   140005501:	73 3a                	jae    0x14000553d
   140005503:	4c 03 c7             	add    r8,rdi
   140005506:	45 8b cf             	mov    r9d,r15d
   140005509:	45 39 38             	cmp    DWORD PTR [r8],r15d
   14000550c:	76 1f                	jbe    0x14000552d
   14000550e:	41 8b 50 04          	mov    edx,DWORD PTR [r8+0x4]
   140005512:	41 8b 48 fc          	mov    ecx,DWORD PTR [r8-0x4]
   140005516:	41 8b c1             	mov    eax,r9d
   140005519:	45 03 cb             	add    r9d,r11d
   14000551c:	48 03 c8             	add    rcx,rax
   14000551f:	48 03 d0             	add    rdx,rax
   140005522:	8a 04 32             	mov    al,BYTE PTR [rdx+rsi*1]
   140005525:	88 04 19             	mov    BYTE PTR [rcx+rbx*1],al
   140005528:	45 3b 08             	cmp    r9d,DWORD PTR [r8]
   14000552b:	72 e1                	jb     0x14000550e
   14000552d:	0f b7 47 06          	movzx  eax,WORD PTR [rdi+0x6]
   140005531:	45 03 d3             	add    r10d,r11d
   140005534:	49 83 c0 28          	add    r8,0x28
   140005538:	44 3b d0             	cmp    r10d,eax
   14000553b:	72 c9                	jb     0x140005506
   14000553d:	4c 8b f3             	mov    r14,rbx
   140005540:	41 b8 02 00 00 00    	mov    r8d,0x2
   140005546:	4c 2b 77 30          	sub    r14,QWORD PTR [rdi+0x30]
   14000554a:	0f 84 d6 00 00 00    	je     0x140005626
   140005550:	44 39 bf b4 00 00 00 	cmp    DWORD PTR [rdi+0xb4],r15d
   140005557:	0f 84 c9 00 00 00    	je     0x140005626
   14000555d:	44 8b 8f b0 00 00 00 	mov    r9d,DWORD PTR [rdi+0xb0]
   140005564:	4c 03 cb             	add    r9,rbx
   140005567:	45 39 39             	cmp    DWORD PTR [r9],r15d
   14000556a:	0f 84 b6 00 00 00    	je     0x140005626
   140005570:	4d 8d 51 08          	lea    r10,[r9+0x8]
   140005574:	e9 91 00 00 00       	jmp    0x14000560a
   140005579:	45 0f b7 1a          	movzx  r11d,WORD PTR [r10]
   14000557d:	41 0f b7 cb          	movzx  ecx,r11w
   140005581:	41 0f b7 c3          	movzx  eax,r11w
   140005585:	66 c1 e9 0c          	shr    cx,0xc
   140005589:	66 83 f9 0a          	cmp    cx,0xa
   14000558d:	75 29                	jne    0x1400055b8
   14000558f:	45 8b 01             	mov    r8d,DWORD PTR [r9]
   140005592:	41 81 e3 ff 0f 00 00 	and    r11d,0xfff
   140005599:	4b 8d 04 18          	lea    rax,[r8+r11*1]
   14000559d:	48 8b 14 18          	mov    rdx,QWORD PTR [rax+rbx*1]
   1400055a1:	4b 8d 04 18          	lea    rax,[r8+r11*1]
   1400055a5:	41 bb 01 00 00 00    	mov    r11d,0x1
   1400055ab:	49 03 d6             	add    rdx,r14
   1400055ae:	48 89 14 18          	mov    QWORD PTR [rax+rbx*1],rdx
   1400055b2:	45 8d 43 01          	lea    r8d,[r11+0x1]
   1400055b6:	eb 4f                	jmp    0x140005607
   1400055b8:	41 bb 01 00 00 00    	mov    r11d,0x1
   1400055be:	66 83 f9 03          	cmp    cx,0x3
   1400055c2:	75 0e                	jne    0x1400055d2
   1400055c4:	25 ff 0f 00 00       	and    eax,0xfff
   1400055c9:	48 8d 0c 03          	lea    rcx,[rbx+rax*1]
   1400055cd:	41 8b c6             	mov    eax,r14d
   1400055d0:	eb 2e                	jmp    0x140005600
   1400055d2:	66 41 3b cb          	cmp    cx,r11w
   1400055d6:	75 15                	jne    0x1400055ed
   1400055d8:	25 ff 0f 00 00       	and    eax,0xfff
   1400055dd:	48 8d 0c 03          	lea    rcx,[rbx+rax*1]
   1400055e1:	49 8b c6             	mov    rax,r14
   1400055e4:	48 c1 e8 10          	shr    rax,0x10
   1400055e8:	0f b7 c0             	movzx  eax,ax
   1400055eb:	eb 13                	jmp    0x140005600
   1400055ed:	66 41 3b c8          	cmp    cx,r8w
   1400055f1:	75 14                	jne    0x140005607
   1400055f3:	25 ff 0f 00 00       	and    eax,0xfff
   1400055f8:	48 8d 0c 03          	lea    rcx,[rbx+rax*1]
   1400055fc:	41 0f b7 c6          	movzx  eax,r14w
   140005600:	41 8b 11             	mov    edx,DWORD PTR [r9]
   140005603:	48 01 04 0a          	add    QWORD PTR [rdx+rcx*1],rax
   140005607:	4d 03 d0             	add    r10,r8
   14000560a:	41 8b 41 04          	mov    eax,DWORD PTR [r9+0x4]
   14000560e:	49 03 c1             	add    rax,r9
   140005611:	4c 3b d0             	cmp    r10,rax
   140005614:	0f 85 5f ff ff ff    	jne    0x140005579
   14000561a:	4d 8b ca             	mov    r9,r10
   14000561d:	45 39 3a             	cmp    DWORD PTR [r10],r15d
   140005620:	0f 85 4a ff ff ff    	jne    0x140005570
   140005626:	44 39 bf 94 00 00 00 	cmp    DWORD PTR [rdi+0x94],r15d
   14000562d:	0f 84 82 01 00 00    	je     0x1400057b5
   140005633:	8b 8f 90 00 00 00    	mov    ecx,DWORD PTR [rdi+0x90]
   140005639:	45 8b ef             	mov    r13d,r15d
   14000563c:	4c 8d 04 19          	lea    r8,[rcx+rbx*1]
   140005640:	49 8d 40 0c          	lea    rax,[r8+0xc]
   140005644:	eb 07                	jmp    0x14000564d
   140005646:	45 03 eb             	add    r13d,r11d
   140005649:	48 8d 40 14          	lea    rax,[rax+0x14]
   14000564d:	44 39 38             	cmp    DWORD PTR [rax],r15d
   140005650:	75 f4                	jne    0x140005646
   140005652:	41 8b c4             	mov    eax,r12d
   140005655:	83 e0 04             	and    eax,0x4
   140005658:	89 45 c0             	mov    DWORD PTR [rbp-0x40],eax
   14000565b:	8b c1                	mov    eax,ecx
   14000565d:	0f 84 89 00 00 00    	je     0x1400056ec
   140005663:	45 3b eb             	cmp    r13d,r11d
   140005666:	0f 86 80 00 00 00    	jbe    0x1400056ec
   14000566c:	41 c1 ec 10          	shr    r12d,0x10
   140005670:	45 8d 5d ff          	lea    r11d,[r13-0x1]
   140005674:	45 8b d7             	mov    r10d,r15d
   140005677:	45 85 db             	test   r11d,r11d
   14000567a:	74 74                	je     0x1400056f0
   14000567c:	4d 8b c8             	mov    r9,r8
   14000567f:	41 be ff 7f 00 00    	mov    r14d,0x7fff
   140005685:	41 0f 10 01          	movups xmm0,XMMWORD PTR [r9]
   140005689:	33 d2                	xor    edx,edx
   14000568b:	41 8b cd             	mov    ecx,r13d
   14000568e:	41 2b ca             	sub    ecx,r10d
   140005691:	69 f6 fd 43 03 00    	imul   esi,esi,0x343fd
   140005697:	41 8b c6             	mov    eax,r14d
   14000569a:	f7 f1                	div    ecx
   14000569c:	33 d2                	xor    edx,edx
   14000569e:	81 c6 c3 9e 26 00    	add    esi,0x269ec3
   1400056a4:	8d 48 01             	lea    ecx,[rax+0x1]
   1400056a7:	8b c6                	mov    eax,esi
   1400056a9:	c1 e8 10             	shr    eax,0x10
   1400056ac:	41 23 c6             	and    eax,r14d
   1400056af:	f7 f1                	div    ecx
   1400056b1:	41 03 c2             	add    eax,r10d
   1400056b4:	41 ff c2             	inc    r10d
   1400056b7:	48 8d 0c 80          	lea    rcx,[rax+rax*4]
   1400056bb:	41 8b 54 88 10       	mov    edx,DWORD PTR [r8+rcx*4+0x10]
   1400056c0:	41 0f 10 0c 88       	movups xmm1,XMMWORD PTR [r8+rcx*4]
   1400056c5:	41 0f 11 04 88       	movups XMMWORD PTR [r8+rcx*4],xmm0
   1400056ca:	41 8b 41 10          	mov    eax,DWORD PTR [r9+0x10]
   1400056ce:	41 89 44 88 10       	mov    DWORD PTR [r8+rcx*4+0x10],eax
   1400056d3:	41 0f 11 09          	movups XMMWORD PTR [r9],xmm1
   1400056d7:	41 89 51 10          	mov    DWORD PTR [r9+0x10],edx
   1400056db:	4d 8d 49 14          	lea    r9,[r9+0x14]
   1400056df:	45 3b d3             	cmp    r10d,r11d
   1400056e2:	72 a1                	jb     0x140005685
   1400056e4:	8b 87 90 00 00 00    	mov    eax,DWORD PTR [rdi+0x90]
   1400056ea:	eb 04                	jmp    0x1400056f0
   1400056ec:	44 8b 65 c0          	mov    r12d,DWORD PTR [rbp-0x40]
   1400056f0:	8b f0                	mov    esi,eax
   1400056f2:	48 03 f3             	add    rsi,rbx
   1400056f5:	8b 46 0c             	mov    eax,DWORD PTR [rsi+0xc]
   1400056f8:	85 c0                	test   eax,eax
   1400056fa:	0f 84 b1 00 00 00    	je     0x1400057b1
   140005700:	8b 7d c0             	mov    edi,DWORD PTR [rbp-0x40]
   140005703:	8b c8                	mov    ecx,eax
   140005705:	48 03 cb             	add    rcx,rbx
   140005708:	ff 55 f8             	call   QWORD PTR [rbp-0x8]
   14000570b:	48 89 44 24 38       	mov    QWORD PTR [rsp+0x38],rax
   140005710:	4c 8b d0             	mov    r10,rax
   140005713:	44 8b 36             	mov    r14d,DWORD PTR [rsi]
   140005716:	44 8b 7e 10          	mov    r15d,DWORD PTR [rsi+0x10]
   14000571a:	4c 03 f3             	add    r14,rbx
   14000571d:	4c 03 fb             	add    r15,rbx
   140005720:	49 8b 0e             	mov    rcx,QWORD PTR [r14]
   140005723:	48 85 c9             	test   rcx,rcx
   140005726:	74 5f                	je     0x140005787
   140005728:	48 85 c9             	test   rcx,rcx
   14000572b:	79 08                	jns    0x140005735
   14000572d:	45 0f b7 06          	movzx  r8d,WORD PTR [r14]
   140005731:	33 d2                	xor    edx,edx
   140005733:	eb 32                	jmp    0x140005767
   140005735:	48 8d 53 02          	lea    rdx,[rbx+0x2]
   140005739:	33 c0                	xor    eax,eax
   14000573b:	48 03 d1             	add    rdx,rcx
   14000573e:	38 02                	cmp    BYTE PTR [rdx],al
   140005740:	74 0e                	je     0x140005750
   140005742:	48 8b ca             	mov    rcx,rdx
   140005745:	48 ff c1             	inc    rcx
   140005748:	48 ff c0             	inc    rax
   14000574b:	80 39 00             	cmp    BYTE PTR [rcx],0x0
   14000574e:	75 f5                	jne    0x140005745
   140005750:	48 89 54 24 30       	mov    QWORD PTR [rsp+0x30],rdx
   140005755:	45 33 c0             	xor    r8d,r8d
   140005758:	48 8d 54 24 28       	lea    rdx,[rsp+0x28]
   14000575d:	66 89 44 24 28       	mov    WORD PTR [rsp+0x28],ax
   140005762:	66 89 44 24 2a       	mov    WORD PTR [rsp+0x2a],ax
   140005767:	4d 8b cf             	mov    r9,r15
   14000576a:	49 8b ca             	mov    rcx,r10
   14000576d:	ff 55 d0             	call   QWORD PTR [rbp-0x30]
   140005770:	49 83 c6 08          	add    r14,0x8
   140005774:	49 83 c7 08          	add    r15,0x8
   140005778:	49 8b 0e             	mov    rcx,QWORD PTR [r14]
   14000577b:	48 85 c9             	test   rcx,rcx
   14000577e:	74 07                	je     0x140005787
   140005780:	4c 8b 54 24 38       	mov    r10,QWORD PTR [rsp+0x38]
   140005785:	eb a1                	jmp    0x140005728
   140005787:	45 33 ff             	xor    r15d,r15d
   14000578a:	85 ff                	test   edi,edi
   14000578c:	74 10                	je     0x14000579e
   14000578e:	41 83 fd 01          	cmp    r13d,0x1
   140005792:	76 0a                	jbe    0x14000579e
   140005794:	41 69 cc e8 03 00 00 	imul   ecx,r12d,0x3e8
   14000579b:	ff 55 f0             	call   QWORD PTR [rbp-0x10]
   14000579e:	8b 46 20             	mov    eax,DWORD PTR [rsi+0x20]
   1400057a1:	48 83 c6 14          	add    rsi,0x14
   1400057a5:	85 c0                	test   eax,eax
   1400057a7:	0f 85 56 ff ff ff    	jne    0x140005703
   1400057ad:	48 8b 7d 30          	mov    rdi,QWORD PTR [rbp+0x30]
   1400057b1:	4c 8b 6d d0          	mov    r13,QWORD PTR [rbp-0x30]
   1400057b5:	44 39 bf f4 00 00 00 	cmp    DWORD PTR [rdi+0xf4],r15d
   1400057bc:	0f 84 a9 00 00 00    	je     0x14000586b
   1400057c2:	44 8b bf f0 00 00 00 	mov    r15d,DWORD PTR [rdi+0xf0]
   1400057c9:	49 83 c7 04          	add    r15,0x4
   1400057cd:	4c 03 fb             	add    r15,rbx
   1400057d0:	45 33 e4             	xor    r12d,r12d
   1400057d3:	41 8b 07             	mov    eax,DWORD PTR [r15]
   1400057d6:	85 c0                	test   eax,eax
   1400057d8:	0f 84 8a 00 00 00    	je     0x140005868
   1400057de:	8b c8                	mov    ecx,eax
   1400057e0:	48 03 cb             	add    rcx,rbx
   1400057e3:	ff 55 f8             	call   QWORD PTR [rbp-0x8]
   1400057e6:	48 89 44 24 38       	mov    QWORD PTR [rsp+0x38],rax
   1400057eb:	48 8b c8             	mov    rcx,rax
   1400057ee:	41 8b 77 08          	mov    esi,DWORD PTR [r15+0x8]
   1400057f2:	45 8b 77 0c          	mov    r14d,DWORD PTR [r15+0xc]
   1400057f6:	48 03 f3             	add    rsi,rbx
   1400057f9:	4c 03 f3             	add    r14,rbx
   1400057fc:	4c 39 26             	cmp    QWORD PTR [rsi],r12
   1400057ff:	74 5e                	je     0x14000585f
   140005801:	49 8b 16             	mov    rdx,QWORD PTR [r14]
   140005804:	48 85 d2             	test   rdx,rdx
   140005807:	79 08                	jns    0x140005811
   140005809:	44 0f b7 c2          	movzx  r8d,dx
   14000580d:	33 d2                	xor    edx,edx
   14000580f:	eb 34                	jmp    0x140005845
   140005811:	4c 8d 43 02          	lea    r8,[rbx+0x2]
   140005815:	49 8b c4             	mov    rax,r12
   140005818:	4c 03 c2             	add    r8,rdx
   14000581b:	45 38 20             	cmp    BYTE PTR [r8],r12b
   14000581e:	74 0e                	je     0x14000582e
   140005820:	49 8b d0             	mov    rdx,r8
   140005823:	48 ff c2             	inc    rdx
   140005826:	48 ff c0             	inc    rax
   140005829:	44 38 22             	cmp    BYTE PTR [rdx],r12b
   14000582c:	75 f5                	jne    0x140005823
   14000582e:	4c 89 44 24 30       	mov    QWORD PTR [rsp+0x30],r8
   140005833:	48 8d 54 24 28       	lea    rdx,[rsp+0x28]
   140005838:	45 33 c0             	xor    r8d,r8d
   14000583b:	66 89 44 24 28       	mov    WORD PTR [rsp+0x28],ax
   140005840:	66 89 44 24 2a       	mov    WORD PTR [rsp+0x2a],ax
   140005845:	4c 8b ce             	mov    r9,rsi
   140005848:	41 ff d5             	call   r13
   14000584b:	48 83 c6 08          	add    rsi,0x8
   14000584f:	49 83 c6 08          	add    r14,0x8
   140005853:	4c 39 26             	cmp    QWORD PTR [rsi],r12
   140005856:	74 07                	je     0x14000585f
   140005858:	48 8b 4c 24 38       	mov    rcx,QWORD PTR [rsp+0x38]
   14000585d:	eb a2                	jmp    0x140005801
   14000585f:	49 83 c7 20          	add    r15,0x20
   140005863:	e9 6b ff ff ff       	jmp    0x1400057d3
   140005868:	45 33 ff             	xor    r15d,r15d
   14000586b:	0f b7 77 14          	movzx  esi,WORD PTR [rdi+0x14]
   14000586f:	45 8b f7             	mov    r14d,r15d
   140005872:	48 83 c6 28          	add    rsi,0x28
   140005876:	41 bc 01 00 00 00    	mov    r12d,0x1
   14000587c:	66 44 3b 7f 06       	cmp    r15w,WORD PTR [rdi+0x6]
   140005881:	0f 83 0b 01 00 00    	jae    0x140005992
   140005887:	48 03 f7             	add    rsi,rdi
   14000588a:	44 39 3e             	cmp    DWORD PTR [rsi],r15d
   14000588d:	0f 84 eb 00 00 00    	je     0x14000597e
   140005893:	8b 46 14             	mov    eax,DWORD PTR [rsi+0x14]
   140005896:	8b c8                	mov    ecx,eax
   140005898:	81 e1 00 00 00 20    	and    ecx,0x20000000
   14000589e:	75 17                	jne    0x1400058b7
   1400058a0:	0f ba e0 1e          	bt     eax,0x1e
   1400058a4:	72 11                	jb     0x1400058b7
   1400058a6:	85 c0                	test   eax,eax
   1400058a8:	78 0d                	js     0x1400058b7
   1400058aa:	45 8b c4             	mov    r8d,r12d
   1400058ad:	44 89 64 24 20       	mov    DWORD PTR [rsp+0x20],r12d
   1400058b2:	e9 a4 00 00 00       	jmp    0x14000595b
   1400058b7:	85 c9                	test   ecx,ecx
   1400058b9:	75 3c                	jne    0x1400058f7
   1400058bb:	0f ba e0 1e          	bt     eax,0x1e
   1400058bf:	72 0a                	jb     0x1400058cb
   1400058c1:	85 c0                	test   eax,eax
   1400058c3:	79 06                	jns    0x1400058cb
   1400058c5:	44 8d 41 08          	lea    r8d,[rcx+0x8]
   1400058c9:	eb 68                	jmp    0x140005933
   1400058cb:	85 c9                	test   ecx,ecx
   1400058cd:	75 28                	jne    0x1400058f7
   1400058cf:	0f ba e0 1e          	bt     eax,0x1e
   1400058d3:	73 0a                	jae    0x1400058df
   1400058d5:	85 c0                	test   eax,eax
   1400058d7:	78 06                	js     0x1400058df
   1400058d9:	44 8d 41 02          	lea    r8d,[rcx+0x2]
   1400058dd:	eb 54                	jmp    0x140005933
   1400058df:	85 c9                	test   ecx,ecx
   1400058e1:	75 14                	jne    0x1400058f7
   1400058e3:	0f ba e0 1e          	bt     eax,0x1e
   1400058e7:	73 0a                	jae    0x1400058f3
   1400058e9:	85 c0                	test   eax,eax
   1400058eb:	79 06                	jns    0x1400058f3
   1400058ed:	44 8d 41 04          	lea    r8d,[rcx+0x4]
   1400058f1:	eb 40                	jmp    0x140005933
   1400058f3:	85 c9                	test   ecx,ecx
   1400058f5:	74 5f                	je     0x140005956
   1400058f7:	0f ba e0 1e          	bt     eax,0x1e
   1400058fb:	72 0c                	jb     0x140005909
   1400058fd:	85 c0                	test   eax,eax
   1400058ff:	78 08                	js     0x140005909
   140005901:	41 b8 10 00 00 00    	mov    r8d,0x10
   140005907:	eb 2a                	jmp    0x140005933
   140005909:	85 c9                	test   ecx,ecx
   14000590b:	74 49                	je     0x140005956
   14000590d:	0f ba e0 1e          	bt     eax,0x1e
   140005911:	72 0c                	jb     0x14000591f
   140005913:	85 c0                	test   eax,eax
   140005915:	79 08                	jns    0x14000591f
   140005917:	41 b8 80 00 00 00    	mov    r8d,0x80
   14000591d:	eb 14                	jmp    0x140005933
   14000591f:	85 c9                	test   ecx,ecx
   140005921:	74 33                	je     0x140005956
   140005923:	0f ba e0 1e          	bt     eax,0x1e
   140005927:	73 11                	jae    0x14000593a
   140005929:	85 c0                	test   eax,eax
   14000592b:	78 0d                	js     0x14000593a
   14000592d:	41 b8 20 00 00 00    	mov    r8d,0x20
   140005933:	44 89 44 24 20       	mov    DWORD PTR [rsp+0x20],r8d
   140005938:	eb 21                	jmp    0x14000595b
   14000593a:	85 c9                	test   ecx,ecx
   14000593c:	74 18                	je     0x140005956
   14000593e:	0f ba e0 1e          	bt     eax,0x1e
   140005942:	73 12                	jae    0x140005956
   140005944:	44 8b 44 24 20       	mov    r8d,DWORD PTR [rsp+0x20]
   140005949:	85 c0                	test   eax,eax
   14000594b:	b9 40 00 00 00       	mov    ecx,0x40
   140005950:	44 0f 48 c1          	cmovs  r8d,ecx
   140005954:	eb dd                	jmp    0x140005933
   140005956:	44 8b 44 24 20       	mov    r8d,DWORD PTR [rsp+0x20]
   14000595b:	f7 46 14 00 00 00 04 	test   DWORD PTR [rsi+0x14],0x4000000
   140005962:	74 0a                	je     0x14000596e
   140005964:	41 0f ba e8 09       	bts    r8d,0x9
   140005969:	44 89 44 24 20       	mov    DWORD PTR [rsp+0x20],r8d
   14000596e:	8b 4e fc             	mov    ecx,DWORD PTR [rsi-0x4]
   140005971:	4c 8d 4c 24 20       	lea    r9,[rsp+0x20]
   140005976:	8b 16                	mov    edx,DWORD PTR [rsi]
   140005978:	48 03 cb             	add    rcx,rbx
   14000597b:	ff 55 00             	call   QWORD PTR [rbp+0x0]
   14000597e:	0f b7 47 06          	movzx  eax,WORD PTR [rdi+0x6]
   140005982:	45 03 f4             	add    r14d,r12d
   140005985:	48 83 c6 28          	add    rsi,0x28
   140005989:	44 3b f0             	cmp    r14d,eax
   14000598c:	0f 82 f8 fe ff ff    	jb     0x14000588a
   140005992:	45 33 c0             	xor    r8d,r8d
   140005995:	33 d2                	xor    edx,edx
   140005997:	48 83 c9 ff          	or     rcx,0xffffffffffffffff
   14000599b:	ff 55 08             	call   QWORD PTR [rbp+0x8]
   14000599e:	44 39 bf d4 00 00 00 	cmp    DWORD PTR [rdi+0xd4],r15d
   1400059a5:	74 24                	je     0x1400059cb
   1400059a7:	8b 87 d0 00 00 00    	mov    eax,DWORD PTR [rdi+0xd0]
   1400059ad:	48 8b 74 18 18       	mov    rsi,QWORD PTR [rax+rbx*1+0x18]
   1400059b2:	eb 0f                	jmp    0x1400059c3
   1400059b4:	45 33 c0             	xor    r8d,r8d
   1400059b7:	41 8b d4             	mov    edx,r12d
   1400059ba:	48 8b cb             	mov    rcx,rbx
   1400059bd:	ff d0                	call   rax
   1400059bf:	48 8d 76 08          	lea    rsi,[rsi+0x8]
   1400059c3:	48 8b 06             	mov    rax,QWORD PTR [rsi]
   1400059c6:	48 85 c0             	test   rax,rax
   1400059c9:	75 e9                	jne    0x1400059b4
   1400059cb:	4c 8b 4d 18          	mov    r9,QWORD PTR [rbp+0x18]
   1400059cf:	4d 85 c9             	test   r9,r9
   1400059d2:	74 2f                	je     0x140005a03
   1400059d4:	8b 87 a4 00 00 00    	mov    eax,DWORD PTR [rdi+0xa4]
   1400059da:	85 c0                	test   eax,eax
   1400059dc:	74 25                	je     0x140005a03
   1400059de:	8b c8                	mov    ecx,eax
   1400059e0:	4c 8b c3             	mov    r8,rbx
   1400059e3:	48 b8 ab aa aa aa aa 	movabs rax,0xaaaaaaaaaaaaaaab
   1400059ea:	aa aa aa 
   1400059ed:	48 f7 e1             	mul    rcx
   1400059f0:	8b 8f a0 00 00 00    	mov    ecx,DWORD PTR [rdi+0xa0]
   1400059f6:	48 c1 ea 03          	shr    rdx,0x3
   1400059fa:	48 03 cb             	add    rcx,rbx
   1400059fd:	41 2b d4             	sub    edx,r12d
   140005a00:	41 ff d1             	call   r9
   140005a03:	8b 47 28             	mov    eax,DWORD PTR [rdi+0x28]
   140005a06:	4d 8b c4             	mov    r8,r12
   140005a09:	48 03 c3             	add    rax,rbx
   140005a0c:	41 8b d4             	mov    edx,r12d
   140005a0f:	48 8b cb             	mov    rcx,rbx
   140005a12:	ff d0                	call   rax
   140005a14:	8b b5 b8 00 00 00    	mov    esi,DWORD PTR [rbp+0xb8]
   140005a1a:	85 f6                	test   esi,esi
   140005a1c:	0f 84 97 00 00 00    	je     0x140005ab9
   140005a22:	44 39 bf 8c 00 00 00 	cmp    DWORD PTR [rdi+0x8c],r15d
   140005a29:	0f 84 8a 00 00 00    	je     0x140005ab9
   140005a2f:	8b 8f 88 00 00 00    	mov    ecx,DWORD PTR [rdi+0x88]
   140005a35:	48 03 cb             	add    rcx,rbx
   140005a38:	44 8b 59 18          	mov    r11d,DWORD PTR [rcx+0x18]
   140005a3c:	45 85 db             	test   r11d,r11d
   140005a3f:	74 78                	je     0x140005ab9
   140005a41:	44 39 79 14          	cmp    DWORD PTR [rcx+0x14],r15d
   140005a45:	74 72                	je     0x140005ab9
   140005a47:	44 8b 49 20          	mov    r9d,DWORD PTR [rcx+0x20]
   140005a4b:	41 8b ff             	mov    edi,r15d
   140005a4e:	8b 51 24             	mov    edx,DWORD PTR [rcx+0x24]
   140005a51:	4c 03 cb             	add    r9,rbx
   140005a54:	48 03 d3             	add    rdx,rbx
   140005a57:	45 85 db             	test   r11d,r11d
   140005a5a:	74 5d                	je     0x140005ab9
   140005a5c:	45 8b 01             	mov    r8d,DWORD PTR [r9]
   140005a5f:	45 8b d7             	mov    r10d,r15d
   140005a62:	4c 03 c3             	add    r8,rbx
   140005a65:	74 52                	je     0x140005ab9
   140005a67:	eb 0d                	jmp    0x140005a76
   140005a69:	0f be c0             	movsx  eax,al
   140005a6c:	44 03 d0             	add    r10d,eax
   140005a6f:	41 c1 ca 0d          	ror    r10d,0xd
   140005a73:	4d 03 c4             	add    r8,r12
   140005a76:	41 8a 00             	mov    al,BYTE PTR [r8]
   140005a79:	84 c0                	test   al,al
   140005a7b:	75 ec                	jne    0x140005a69
   140005a7d:	41 3b f2             	cmp    esi,r10d
   140005a80:	75 05                	jne    0x140005a87
   140005a82:	48 85 d2             	test   rdx,rdx
   140005a85:	75 12                	jne    0x140005a99
   140005a87:	41 03 fc             	add    edi,r12d
   140005a8a:	49 83 c1 04          	add    r9,0x4
   140005a8e:	48 83 c2 02          	add    rdx,0x2
   140005a92:	41 3b fb             	cmp    edi,r11d
   140005a95:	73 22                	jae    0x140005ab9
   140005a97:	eb c3                	jmp    0x140005a5c
   140005a99:	8b 41 1c             	mov    eax,DWORD PTR [rcx+0x1c]
   140005a9c:	0f b7 0a             	movzx  ecx,WORD PTR [rdx]
   140005a9f:	48 03 c3             	add    rax,rbx
   140005aa2:	8b 95 c8 00 00 00    	mov    edx,DWORD PTR [rbp+0xc8]
   140005aa8:	44 8b 04 88          	mov    r8d,DWORD PTR [rax+rcx*4]
   140005aac:	48 8b 8d c0 00 00 00 	mov    rcx,QWORD PTR [rbp+0xc0]
   140005ab3:	4c 03 c3             	add    r8,rbx
   140005ab6:	41 ff d0             	call   r8
   140005ab9:	48 8b c3             	mov    rax,rbx
   140005abc:	eb 02                	jmp    0x140005ac0
   140005abe:	33 c0                	xor    eax,eax
   140005ac0:	48 8b 9c 24 b0 01 00 	mov    rbx,QWORD PTR [rsp+0x1b0]
   140005ac7:	00 
   140005ac8:	48 81 c4 70 01 00 00 	add    rsp,0x170
   140005acf:	41 5f                	pop    r15
   140005ad1:	41 5e                	pop    r14
   140005ad3:	41 5d                	pop    r13
   140005ad5:	41 5c                	pop    r12
   140005ad7:	5f                   	pop    rdi
   140005ad8:	5e                   	pop    rsi
   140005ad9:	5d                   	pop    rbp
   140005ada:	c3                   	ret    
   140005adb:	cc                   	int3   
   140005adc:	48 8b c4             	mov    rax,rsp
   140005adf:	48 89 58 08          	mov    QWORD PTR [rax+0x8],rbx
   140005ae3:	48 89 68 10          	mov    QWORD PTR [rax+0x10],rbp
   140005ae7:	48 89 70 18          	mov    QWORD PTR [rax+0x18],rsi
   140005aeb:	48 89 78 20          	mov    QWORD PTR [rax+0x20],rdi
   140005aef:	41 56                	push   r14
   140005af1:	48 83 ec 10          	sub    rsp,0x10
   140005af5:	65 48 8b 04 25 60 00 	mov    rax,QWORD PTR gs:0x60
   140005afc:	00 00 
   140005afe:	8b e9                	mov    ebp,ecx
   140005b00:	45 33 f6             	xor    r14d,r14d
   140005b03:	48 8b 50 18          	mov    rdx,QWORD PTR [rax+0x18]
   140005b07:	4c 8b 4a 10          	mov    r9,QWORD PTR [rdx+0x10]
   140005b0b:	4d 8b 41 30          	mov    r8,QWORD PTR [r9+0x30]
   140005b0f:	4d 85 c0             	test   r8,r8
   140005b12:	0f 84 b3 00 00 00    	je     0x140005bcb
   140005b18:	41 0f 10 41 58       	movups xmm0,XMMWORD PTR [r9+0x58]
   140005b1d:	49 63 40 3c          	movsxd rax,DWORD PTR [r8+0x3c]
   140005b21:	41 8b d6             	mov    edx,r14d
   140005b24:	4d 8b 09             	mov    r9,QWORD PTR [r9]
   140005b27:	f3 0f 7f 04 24       	movdqu XMMWORD PTR [rsp],xmm0
   140005b2c:	46 8b 9c 00 88 00 00 	mov    r11d,DWORD PTR [rax+r8*1+0x88]
   140005b33:	00 
   140005b34:	45 85 db             	test   r11d,r11d
   140005b37:	74 d2                	je     0x140005b0b
   140005b39:	48 8b 04 24          	mov    rax,QWORD PTR [rsp]
   140005b3d:	48 c1 e8 10          	shr    rax,0x10
   140005b41:	66 44 3b f0          	cmp    r14w,ax
   140005b45:	73 22                	jae    0x140005b69
   140005b47:	48 8b 4c 24 08       	mov    rcx,QWORD PTR [rsp+0x8]
   140005b4c:	44 0f b7 d0          	movzx  r10d,ax
   140005b50:	0f be 01             	movsx  eax,BYTE PTR [rcx]
   140005b53:	c1 ca 0d             	ror    edx,0xd
   140005b56:	80 39 61             	cmp    BYTE PTR [rcx],0x61
   140005b59:	7c 03                	jl     0x140005b5e
   140005b5b:	83 c2 e0             	add    edx,0xffffffe0
   140005b5e:	03 d0                	add    edx,eax
   140005b60:	48 ff c1             	inc    rcx
   140005b63:	49 83 ea 01          	sub    r10,0x1
   140005b67:	75 e7                	jne    0x140005b50
   140005b69:	4f 8d 14 18          	lea    r10,[r8+r11*1]
   140005b6d:	45 8b de             	mov    r11d,r14d
   140005b70:	41 8b 7a 20          	mov    edi,DWORD PTR [r10+0x20]
   140005b74:	49 03 f8             	add    rdi,r8
   140005b77:	45 39 72 18          	cmp    DWORD PTR [r10+0x18],r14d
   140005b7b:	76 8e                	jbe    0x140005b0b
   140005b7d:	8b 37                	mov    esi,DWORD PTR [rdi]
   140005b7f:	41 8b de             	mov    ebx,r14d
   140005b82:	49 03 f0             	add    rsi,r8
   140005b85:	48 8d 7f 04          	lea    rdi,[rdi+0x4]
   140005b89:	0f be 0e             	movsx  ecx,BYTE PTR [rsi]
   140005b8c:	48 ff c6             	inc    rsi
   140005b8f:	c1 cb 0d             	ror    ebx,0xd
   140005b92:	03 d9                	add    ebx,ecx
   140005b94:	84 c9                	test   cl,cl
   140005b96:	75 f1                	jne    0x140005b89
   140005b98:	8d 04 13             	lea    eax,[rbx+rdx*1]
   140005b9b:	3b c5                	cmp    eax,ebp
   140005b9d:	74 0e                	je     0x140005bad
   140005b9f:	41 ff c3             	inc    r11d
   140005ba2:	45 3b 5a 18          	cmp    r11d,DWORD PTR [r10+0x18]
   140005ba6:	72 d5                	jb     0x140005b7d
   140005ba8:	e9 5e ff ff ff       	jmp    0x140005b0b
   140005bad:	41 8b 42 24          	mov    eax,DWORD PTR [r10+0x24]
   140005bb1:	43 8d 0c 1b          	lea    ecx,[r11+r11*1]
   140005bb5:	49 03 c0             	add    rax,r8
   140005bb8:	0f b7 14 01          	movzx  edx,WORD PTR [rcx+rax*1]
   140005bbc:	41 8b 4a 1c          	mov    ecx,DWORD PTR [r10+0x1c]
   140005bc0:	49 03 c8             	add    rcx,r8
   140005bc3:	8b 04 91             	mov    eax,DWORD PTR [rcx+rdx*4]
   140005bc6:	49 03 c0             	add    rax,r8
   140005bc9:	eb 02                	jmp    0x140005bcd
   140005bcb:	33 c0                	xor    eax,eax
   140005bcd:	48 8b 5c 24 20       	mov    rbx,QWORD PTR [rsp+0x20]
   140005bd2:	48 8b 6c 24 28       	mov    rbp,QWORD PTR [rsp+0x28]
   140005bd7:	48 8b 74 24 30       	mov    rsi,QWORD PTR [rsp+0x30]
   140005bdc:	48 8b 7c 24 38       	mov    rdi,QWORD PTR [rsp+0x38]
   140005be1:	48 83 c4 10          	add    rsp,0x10
   140005be5:	41 5e                	pop    r14
   140005be7:	c3                   	ret    
   140005be8:	4d 5a                	rex.WRB pop r10
   140005bea:	90                   	nop
   140005beb:	00 03                	add    BYTE PTR [rbx],al
   140005bed:	00 00                	add    BYTE PTR [rax],al
   140005bef:	00 04 00             	add    BYTE PTR [rax+rax*1],al
   140005bf2:	00 00                	add    BYTE PTR [rax],al
   140005bf4:	ff                   	(bad)  
   140005bf5:	ff 00                	inc    DWORD PTR [rax]
   140005bf7:	00 b8 00 00 00 00    	add    BYTE PTR [rax+0x0],bh
   140005bfd:	00 00                	add    BYTE PTR [rax],al
   140005bff:	00 40 00             	add    BYTE PTR [rax+0x0],al
	...
   140005c22:	00 00                	add    BYTE PTR [rax],al
   140005c24:	f8                   	clc    
   140005c25:	00 00                	add    BYTE PTR [rax],al
   140005c27:	00 0e                	add    BYTE PTR [rsi],cl
   140005c29:	1f                   	(bad)  
   140005c2a:	ba 0e 00 b4 09       	mov    edx,0x9b4000e
   140005c2f:	cd 21                	int    0x21
   140005c31:	b8 01 4c cd 21       	mov    eax,0x21cd4c01
   140005c36:	54                   	push   rsp
   140005c37:	68 69 73 20 70       	push   0x70207369
   140005c3c:	72 6f                	jb     0x140005cad
   140005c3e:	67 72 61             	addr32 jb 0x140005ca2
   140005c41:	6d                   	ins    DWORD PTR es:[rdi],dx
   140005c42:	20 63 61             	and    BYTE PTR [rbx+0x61],ah
   140005c45:	6e                   	outs   dx,BYTE PTR ds:[rsi]
   140005c46:	6e                   	outs   dx,BYTE PTR ds:[rsi]
   140005c47:	6f                   	outs   dx,DWORD PTR ds:[rsi]
   140005c48:	74 20                	je     0x140005c6a
   140005c4a:	62 65                	(bad)  
   140005c4c:	20 72 75             	and    BYTE PTR [rdx+0x75],dh
   140005c4f:	6e                   	outs   dx,BYTE PTR ds:[rsi]
   140005c50:	20 69 6e             	and    BYTE PTR [rcx+0x6e],ch
   140005c53:	20 44 4f 53          	and    BYTE PTR [rdi+rcx*2+0x53],al
   140005c57:	20 6d 6f             	and    BYTE PTR [rbp+0x6f],ch
   140005c5a:	64 65 2e 0d 0d 0a 24 	fs gs cs or eax,0x240a0d
   140005c61:	00 
   140005c62:	00 00                	add    BYTE PTR [rax],al
   140005c64:	00 00                	add    BYTE PTR [rax],al
   140005c66:	00 00                	add    BYTE PTR [rax],al
   140005c68:	7b ee                	jnp    0x140005c58
   140005c6a:	cc                   	int3   
   140005c6b:	2c 3f                	sub    al,0x3f
   140005c6d:	8f                   	(bad)  
   140005c6e:	a2 7f 3f 8f a2 7f 3f 	movabs ds:0xa28f3f7fa28f3f7f,al
   140005c75:	8f a2 
   140005c77:	7f 36                	jg     0x140005caf
   140005c79:	f7 31                	div    DWORD PTR [rcx]
   140005c7b:	7f 39                	jg     0x140005cb6
   140005c7d:	8f                   	(bad)  
   140005c7e:	a2 7f 6d fa a7 7e 2f 	movabs ds:0xa28f2f7ea7fa6d7f,al
   140005c85:	8f a2 
   140005c87:	7f 6d                	jg     0x140005cf6
   140005c89:	fa                   	cli    
   140005c8a:	a6                   	cmps   BYTE PTR ds:[rsi],BYTE PTR es:[rdi]
   140005c8b:	7e 37                	jle    0x140005cc4
   140005c8d:	8f                   	(bad)  
   140005c8e:	a2 7f 6d fa a1 7e 3c 	movabs ds:0xa28f3c7ea1fa6d7f,al
   140005c95:	8f a2 
   140005c97:	7f 6d                	jg     0x140005d06
   140005c99:	fa                   	cli    
   140005c9a:	a3 7e 39 8f a2 7f 2b 	movabs ds:0xa3e42b7fa28f397e,eax
   140005ca1:	e4 a3 
   140005ca3:	7e 3c                	jle    0x140005ce1
   140005ca5:	8f                   	(bad)  
   140005ca6:	a2 7f 3f 8f a3 7f 09 	movabs ds:0xa28f097fa38f3f7f,al
   140005cad:	8f a2 
   140005caf:	7f 82                	jg     0x140005c33
   140005cb1:	fa                   	cli    
   140005cb2:	ab                   	stos   DWORD PTR es:[rdi],eax
   140005cb3:	7e 3d                	jle    0x140005cf2
   140005cb5:	8f                   	(bad)  
   140005cb6:	a2 7f 82 fa 5d 7f 3e 	movabs ds:0xa28f3e7f5dfa827f,al
   140005cbd:	8f a2 
   140005cbf:	7f 82                	jg     0x140005c43
   140005cc1:	fa                   	cli    
   140005cc2:	a0 7e 3e 8f a2 7f 52 	movabs al,ds:0x6369527fa28f3e7e
   140005cc9:	69 63 
   140005ccb:	68 3f 8f a2 7f       	push   0x7fa28f3f
	...
   140005ce0:	50                   	push   rax
   140005ce1:	45 00 00             	add    BYTE PTR [r8],r8b
   140005ce4:	64 86 06             	xchg   BYTE PTR fs:[rsi],al
   140005ce7:	00 9d ce 55 62 00    	add    BYTE PTR [rbp+0x6255ce],bl
   140005ced:	00 00                	add    BYTE PTR [rax],al
   140005cef:	00 00                	add    BYTE PTR [rax],al
   140005cf1:	00 00                	add    BYTE PTR [rax],al
   140005cf3:	00 f0                	add    al,dh
   140005cf5:	00 22                	add    BYTE PTR [rdx],ah
   140005cf7:	20 0b                	and    BYTE PTR [rbx],cl
   140005cf9:	02 0e                	add    cl,BYTE PTR [rsi]
   140005cfb:	1d 00 22 00 00       	sbb    eax,0x2200
   140005d00:	00 28                	add    BYTE PTR [rax],ch
   140005d02:	00 00                	add    BYTE PTR [rax],al
   140005d04:	00 00                	add    BYTE PTR [rax],al
   140005d06:	00 00                	add    BYTE PTR [rax],al
   140005d08:	30 25 00 00 00 10    	xor    BYTE PTR [rip+0x10000000],ah        # 0x150005d0e
   140005d0e:	00 00                	add    BYTE PTR [rax],al
   140005d10:	00 00                	add    BYTE PTR [rax],al
   140005d12:	00 80 01 00 00 00    	add    BYTE PTR [rax+0x1],al
   140005d18:	00 10                	add    BYTE PTR [rax],dl
   140005d1a:	00 00                	add    BYTE PTR [rax],al
   140005d1c:	00 02                	add    BYTE PTR [rdx],al
   140005d1e:	00 00                	add    BYTE PTR [rax],al
   140005d20:	06                   	(bad)  
   140005d21:	00 00                	add    BYTE PTR [rax],al
   140005d23:	00 00                	add    BYTE PTR [rax],al
   140005d25:	00 00                	add    BYTE PTR [rax],al
   140005d27:	00 06                	add    BYTE PTR [rsi],al
	...
   140005d31:	a0 00 00 00 04 00 00 	movabs al,ds:0x4000000
   140005d38:	00 00 
   140005d3a:	00 00                	add    BYTE PTR [rax],al
   140005d3c:	02 00                	add    al,BYTE PTR [rax]
   140005d3e:	60                   	(bad)  
   140005d3f:	01 00                	add    DWORD PTR [rax],eax
   140005d41:	00 10                	add    BYTE PTR [rax],dl
   140005d43:	00 00                	add    BYTE PTR [rax],al
   140005d45:	00 00                	add    BYTE PTR [rax],al
   140005d47:	00 00                	add    BYTE PTR [rax],al
   140005d49:	10 00                	adc    BYTE PTR [rax],al
   140005d4b:	00 00                	add    BYTE PTR [rax],al
   140005d4d:	00 00                	add    BYTE PTR [rax],al
   140005d4f:	00 00                	add    BYTE PTR [rax],al
   140005d51:	00 10                	add    BYTE PTR [rax],dl
   140005d53:	00 00                	add    BYTE PTR [rax],al
   140005d55:	00 00                	add    BYTE PTR [rax],al
   140005d57:	00 00                	add    BYTE PTR [rax],al
   140005d59:	10 00                	adc    BYTE PTR [rax],al
	...
   140005d63:	00 10                	add    BYTE PTR [rax],dl
	...
   140005d6d:	00 00                	add    BYTE PTR [rax],al
   140005d6f:	00 b4 4f 00 00 a0 00 	add    BYTE PTR [rdi+rcx*2+0xa00000],dh
   140005d76:	00 00                	add    BYTE PTR [rax],al
   140005d78:	00 80 00 00 f8 00    	add    BYTE PTR [rax+0xf80000],al
   140005d7e:	00 00                	add    BYTE PTR [rax],al
   140005d80:	00 70 00             	add    BYTE PTR [rax+0x0],dh
   140005d83:	00 d0                	add    al,dl
   140005d85:	02 00                	add    al,BYTE PTR [rax]
	...
   140005d8f:	00 00                	add    BYTE PTR [rax],al
   140005d91:	90                   	nop
   140005d92:	00 00                	add    BYTE PTR [rax],al
   140005d94:	4c 00 00             	rex.WR add BYTE PTR [rax],r8b
   140005d97:	00 3c 45 00 00 70 00 	add    BYTE PTR [rax*2+0x700000],bh
	...
   140005db6:	00 00                	add    BYTE PTR [rax],al
   140005db8:	b0 45                	mov    al,0x45
   140005dba:	00 00                	add    BYTE PTR [rax],al
   140005dbc:	38 01                	cmp    BYTE PTR [rcx],al
	...
   140005dc6:	00 00                	add    BYTE PTR [rax],al
   140005dc8:	00 40 00             	add    BYTE PTR [rax+0x0],al
   140005dcb:	00 a0 01 00 00 00    	add    BYTE PTR [rax+0x1],ah
	...
   140005de5:	00 00                	add    BYTE PTR [rax],al
   140005de7:	00 2e                	add    BYTE PTR [rsi],ch
   140005de9:	74 65                	je     0x140005e50
   140005deb:	78 74                	js     0x140005e61
   140005ded:	00 00                	add    BYTE PTR [rax],al
   140005def:	00 3e                	add    BYTE PTR [rsi],bh
   140005df1:	21 00                	and    DWORD PTR [rax],eax
   140005df3:	00 00                	add    BYTE PTR [rax],al
   140005df5:	10 00                	adc    BYTE PTR [rax],al
   140005df7:	00 00                	add    BYTE PTR [rax],al
   140005df9:	22 00                	and    al,BYTE PTR [rax]
   140005dfb:	00 00                	add    BYTE PTR [rax],al
   140005dfd:	04 00                	add    al,0x0
	...
   140005e0b:	00 20                	add    BYTE PTR [rax],ah
   140005e0d:	00 00                	add    BYTE PTR [rax],al
   140005e0f:	60                   	(bad)  
   140005e10:	2e 72 64             	cs jb  0x140005e77
   140005e13:	61                   	(bad)  
   140005e14:	74 61                	je     0x140005e77
   140005e16:	00 00                	add    BYTE PTR [rax],al
   140005e18:	42 16                	rex.X (bad) 
   140005e1a:	00 00                	add    BYTE PTR [rax],al
   140005e1c:	00 40 00             	add    BYTE PTR [rax+0x0],al
   140005e1f:	00 00                	add    BYTE PTR [rax],al
   140005e21:	18 00                	sbb    BYTE PTR [rax],al
   140005e23:	00 00                	add    BYTE PTR [rax],al
   140005e25:	26 00 00             	es add BYTE PTR [rax],al
	...
   140005e34:	40 00 00             	rex add BYTE PTR [rax],al
   140005e37:	40                   	rex
   140005e38:	2e 64 61             	cs fs (bad) 
   140005e3b:	74 61                	je     0x140005e9e
   140005e3d:	00 00                	add    BYTE PTR [rax],al
   140005e3f:	00 f8                	add    al,bh
   140005e41:	06                   	(bad)  
   140005e42:	00 00                	add    BYTE PTR [rax],al
   140005e44:	00 60 00             	add    BYTE PTR [rax+0x0],ah
   140005e47:	00 00                	add    BYTE PTR [rax],al
   140005e49:	02 00                	add    al,BYTE PTR [rax]
   140005e4b:	00 00                	add    BYTE PTR [rax],al
   140005e4d:	3e 00 00             	ds add BYTE PTR [rax],al
	...
   140005e5c:	40 00 00             	rex add BYTE PTR [rax],al
   140005e5f:	c0 2e 70             	shr    BYTE PTR [rsi],0x70
   140005e62:	64 61                	fs (bad) 
   140005e64:	74 61                	je     0x140005ec7
   140005e66:	00 00                	add    BYTE PTR [rax],al
   140005e68:	d0 02                	rol    BYTE PTR [rdx],1
   140005e6a:	00 00                	add    BYTE PTR [rax],al
   140005e6c:	00 70 00             	add    BYTE PTR [rax+0x0],dh
   140005e6f:	00 00                	add    BYTE PTR [rax],al
   140005e71:	04 00                	add    al,0x0
   140005e73:	00 00                	add    BYTE PTR [rax],al
   140005e75:	40 00 00             	rex add BYTE PTR [rax],al
	...
   140005e84:	40 00 00             	rex add BYTE PTR [rax],al
   140005e87:	40                   	rex
   140005e88:	2e 72 73             	cs jb  0x140005efe
   140005e8b:	72 63                	jb     0x140005ef0
   140005e8d:	00 00                	add    BYTE PTR [rax],al
   140005e8f:	00 f8                	add    al,bh
   140005e91:	00 00                	add    BYTE PTR [rax],al
   140005e93:	00 00                	add    BYTE PTR [rax],al
   140005e95:	80 00 00             	add    BYTE PTR [rax],0x0
   140005e98:	00 02                	add    BYTE PTR [rdx],al
   140005e9a:	00 00                	add    BYTE PTR [rax],al
   140005e9c:	00 44 00 00          	add    BYTE PTR [rax+rax*1+0x0],al
	...
   140005eac:	40 00 00             	rex add BYTE PTR [rax],al
   140005eaf:	40                   	rex
   140005eb0:	2e 72 65             	cs jb  0x140005f18
   140005eb3:	6c                   	ins    BYTE PTR es:[rdi],dx
   140005eb4:	6f                   	outs   dx,DWORD PTR ds:[rsi]
   140005eb5:	63 00                	movsxd eax,DWORD PTR [rax]
   140005eb7:	00 4c 00 00          	add    BYTE PTR [rax+rax*1+0x0],cl
   140005ebb:	00 00                	add    BYTE PTR [rax],al
   140005ebd:	90                   	nop
   140005ebe:	00 00                	add    BYTE PTR [rax],al
   140005ec0:	00 02                	add    BYTE PTR [rdx],al
   140005ec2:	00 00                	add    BYTE PTR [rax],al
   140005ec4:	00 46 00             	add    BYTE PTR [rsi+0x0],al
	...
   140005ed3:	00 40 00             	add    BYTE PTR [rax+0x0],al
   140005ed6:	00 42 00             	add    BYTE PTR [rdx+0x0],al
	...
   140005fe5:	00 00                	add    BYTE PTR [rax],al
   140005fe7:	00 48 89             	add    BYTE PTR [rax-0x77],cl
   140005fea:	5c                   	pop    rsp
   140005feb:	24 08                	and    al,0x8
   140005fed:	55                   	push   rbp
   140005fee:	56                   	push   rsi
   140005fef:	57                   	push   rdi
   140005ff0:	41 54                	push   r12
   140005ff2:	41 55                	push   r13
   140005ff4:	41 56                	push   r14
   140005ff6:	41 57                	push   r15
   140005ff8:	48 83 ec 20          	sub    rsp,0x20
   140005ffc:	0f b6 02             	movzx  eax,BYTE PTR [rdx]
   140005fff:	4c 8d 15 e2 ef ff ff 	lea    r10,[rip+0xffffffffffffefe2]        # 0x140004fe8
   140006006:	88 01                	mov    BYTE PTR [rcx],al
   140006008:	41 bf 04 00 00 00    	mov    r15d,0x4
   14000600e:	0f b6 42 01          	movzx  eax,BYTE PTR [rdx+0x1]
   140006012:	88 41 01             	mov    BYTE PTR [rcx+0x1],al
   140006015:	0f b6 42 02          	movzx  eax,BYTE PTR [rdx+0x2]
   140006019:	88 41 02             	mov    BYTE PTR [rcx+0x2],al
   14000601c:	45 8d 6f 02          	lea    r13d,[r15+0x2]
   140006020:	0f b6 42 03          	movzx  eax,BYTE PTR [rdx+0x3]
   140006024:	88 41 03             	mov    BYTE PTR [rcx+0x3],al
   140006027:	0f b6 42 04          	movzx  eax,BYTE PTR [rdx+0x4]
   14000602b:	88 41 04             	mov    BYTE PTR [rcx+0x4],al
   14000602e:	0f b6 42 05          	movzx  eax,BYTE PTR [rdx+0x5]
   140006032:	88 41 05             	mov    BYTE PTR [rcx+0x5],al
   140006035:	0f b6 42 06          	movzx  eax,BYTE PTR [rdx+0x6]
   140006039:	88 41 06             	mov    BYTE PTR [rcx+0x6],al
   14000603c:	0f b6 42 07          	movzx  eax,BYTE PTR [rdx+0x7]
   140006040:	88 41 07             	mov    BYTE PTR [rcx+0x7],al
   140006043:	0f b6 42 08          	movzx  eax,BYTE PTR [rdx+0x8]
   140006047:	88 41 08             	mov    BYTE PTR [rcx+0x8],al
   14000604a:	0f b6 42 09          	movzx  eax,BYTE PTR [rdx+0x9]
   14000604e:	88 41 09             	mov    BYTE PTR [rcx+0x9],al
   140006051:	0f b6 42 0a          	movzx  eax,BYTE PTR [rdx+0xa]
   140006055:	88 41 0a             	mov    BYTE PTR [rcx+0xa],al
   140006058:	0f b6 42 0b          	movzx  eax,BYTE PTR [rdx+0xb]
   14000605c:	88 41 0b             	mov    BYTE PTR [rcx+0xb],al
   14000605f:	0f b6 42 0c          	movzx  eax,BYTE PTR [rdx+0xc]
   140006063:	88 41 0c             	mov    BYTE PTR [rcx+0xc],al
   140006066:	0f b6 42 0d          	movzx  eax,BYTE PTR [rdx+0xd]
   14000606a:	88 41 0d             	mov    BYTE PTR [rcx+0xd],al
   14000606d:	0f b6 42 0e          	movzx  eax,BYTE PTR [rdx+0xe]
   140006071:	88 41 0e             	mov    BYTE PTR [rcx+0xe],al
   140006074:	0f b6 42 0f          	movzx  eax,BYTE PTR [rdx+0xf]
   140006078:	88 41 0f             	mov    BYTE PTR [rcx+0xf],al
   14000607b:	0f 1f 40 00          	nop    DWORD PTR [rax+0x0]
   14000607f:	66 0f 1f 84 00 00 00 	nop    WORD PTR [rax+rax*1+0x0]
   140006086:	00 00 
   140006088:	46 8d 04 bd fc ff ff 	lea    r8d,[r15*4-0x4]
   14000608f:	ff 
   140006090:	41 8b c0             	mov    eax,r8d
   140006093:	48 03 c1             	add    rax,rcx
   140006096:	48 89 04 24          	mov    QWORD PTR [rsp],rax
   14000609a:	0f b6 18             	movzx  ebx,BYTE PTR [rax]
   14000609d:	41 8d 40 01          	lea    eax,[r8+0x1]
   1400060a1:	48 03 c1             	add    rax,rcx
   1400060a4:	48 89 44 24 08       	mov    QWORD PTR [rsp+0x8],rax
   1400060a9:	44 0f b6 08          	movzx  r9d,BYTE PTR [rax]
   1400060ad:	41 8d 40 02          	lea    eax,[r8+0x2]
   1400060b1:	48 03 c1             	add    rax,rcx
   1400060b4:	45 0f b6 f1          	movzx  r14d,r9b
   1400060b8:	48 89 44 24 10       	mov    QWORD PTR [rsp+0x10],rax
   1400060bd:	0f b6 30             	movzx  esi,BYTE PTR [rax]
   1400060c0:	41 8d 40 03          	lea    eax,[r8+0x3]
   1400060c4:	48 03 c1             	add    rax,rcx
   1400060c7:	48 89 44 24 18       	mov    QWORD PTR [rsp+0x18],rax
   1400060cc:	0f b6 28             	movzx  ebp,BYTE PTR [rax]
   1400060cf:	41 8b c7             	mov    eax,r15d
   1400060d2:	83 e0 03             	and    eax,0x3
   1400060d5:	89 44 24 78          	mov    DWORD PTR [rsp+0x78],eax
   1400060d9:	75 34                	jne    0x14000610f
   1400060db:	46 0f b6 b4 16 30 43 	movzx  r14d,BYTE PTR [rsi+r10*1+0x4330]
   1400060e2:	00 00 
   1400060e4:	49 8d 55 fe          	lea    rdx,[r13-0x2]
   1400060e8:	42 0f b6 b4 15 30 43 	movzx  esi,BYTE PTR [rbp+r10*1+0x4330]
   1400060ef:	00 00 
   1400060f1:	42 0f b6 ac 13 30 43 	movzx  ebp,BYTE PTR [rbx+r10*1+0x4330]
   1400060f8:	00 00 
   1400060fa:	48 c1 ea 02          	shr    rdx,0x2
   1400060fe:	42 0f b6 9c 12 30 45 	movzx  ebx,BYTE PTR [rdx+r10*1+0x4530]
   140006105:	00 00 
   140006107:	43 32 9c 11 30 43 00 	xor    bl,BYTE PTR [r9+r10*1+0x4330]
   14000610e:	00 
   14000610f:	46 8d 04 bd f0 ff ff 	lea    r8d,[r15*4-0x10]
   140006116:	ff 
   140006117:	41 32 1c 08          	xor    bl,BYTE PTR [r8+rcx*1]
   14000611b:	41 8d 40 01          	lea    eax,[r8+0x1]
   14000611f:	42 8d 3c bd 00 00 00 	lea    edi,[r15*4+0x0]
   140006126:	00 
   140006127:	44 0f b6 cb          	movzx  r9d,bl
   14000612b:	88 1c 0f             	mov    BYTE PTR [rdi+rcx*1],bl
   14000612e:	44 32 34 08          	xor    r14b,BYTE PTR [rax+rcx*1]
   140006132:	8d 47 01             	lea    eax,[rdi+0x1]
   140006135:	44 88 34 08          	mov    BYTE PTR [rax+rcx*1],r14b
   140006139:	45 0f b6 e6          	movzx  r12d,r14b
   14000613d:	41 8d 40 02          	lea    eax,[r8+0x2]
   140006141:	40 32 34 08          	xor    sil,BYTE PTR [rax+rcx*1]
   140006145:	8d 47 02             	lea    eax,[rdi+0x2]
   140006148:	40 88 34 08          	mov    BYTE PTR [rax+rcx*1],sil
   14000614c:	44 0f b6 d6          	movzx  r10d,sil
   140006150:	41 8d 40 03          	lea    eax,[r8+0x3]
   140006154:	40 32 2c 08          	xor    bpl,BYTE PTR [rax+rcx*1]
   140006158:	8d 47 03             	lea    eax,[rdi+0x3]
   14000615b:	40 88 2c 08          	mov    BYTE PTR [rax+rcx*1],bpl
   14000615f:	44 0f b6 dd          	movzx  r11d,bpl
   140006163:	41 8d 47 01          	lea    eax,[r15+0x1]
   140006167:	a8 03                	test   al,0x3
   140006169:	75 4a                	jne    0x1400061b5
   14000616b:	4c 8d 05 76 ee ff ff 	lea    r8,[rip+0xffffffffffffee76]        # 0x140004fe8
   140006172:	40 0f b6 c6          	movzx  eax,sil
   140006176:	49 8d 55 ff          	lea    rdx,[r13-0x1]
   14000617a:	48 c1 ea 02          	shr    rdx,0x2
   14000617e:	46 0f b6 a4 00 30 43 	movzx  r12d,BYTE PTR [rax+r8*1+0x4330]
   140006185:	00 00 
   140006187:	40 0f b6 c5          	movzx  eax,bpl
   14000618b:	46 0f b6 8c 02 30 45 	movzx  r9d,BYTE PTR [rdx+r8*1+0x4530]
   140006192:	00 00 
   140006194:	46 0f b6 94 00 30 43 	movzx  r10d,BYTE PTR [rax+r8*1+0x4330]
   14000619b:	00 00 
   14000619d:	0f b6 c3             	movzx  eax,bl
   1400061a0:	46 0f b6 9c 00 30 43 	movzx  r11d,BYTE PTR [rax+r8*1+0x4330]
   1400061a7:	00 00 
   1400061a9:	41 0f b6 c6          	movzx  eax,r14b
   1400061ad:	46 32 8c 00 30 43 00 	xor    r9b,BYTE PTR [rax+r8*1+0x4330]
   1400061b4:	00 
   1400061b5:	8d 47 04             	lea    eax,[rdi+0x4]
   1400061b8:	46 8d 04 bd f4 ff ff 	lea    r8d,[r15*4-0xc]
   1400061bf:	ff 
   1400061c0:	45 32 0c 08          	xor    r9b,BYTE PTR [r8+rcx*1]
   1400061c4:	44 88 0c 08          	mov    BYTE PTR [rax+rcx*1],r9b
   1400061c8:	41 8d 40 01          	lea    eax,[r8+0x1]
   1400061cc:	44 32 24 08          	xor    r12b,BYTE PTR [rax+rcx*1]
   1400061d0:	8d 47 05             	lea    eax,[rdi+0x5]
   1400061d3:	44 88 24 08          	mov    BYTE PTR [rax+rcx*1],r12b
   1400061d7:	41 8d 40 02          	lea    eax,[r8+0x2]
   1400061db:	44 32 14 08          	xor    r10b,BYTE PTR [rax+rcx*1]
   1400061df:	8d 47 06             	lea    eax,[rdi+0x6]
   1400061e2:	44 88 14 08          	mov    BYTE PTR [rax+rcx*1],r10b
   1400061e6:	41 8d 40 03          	lea    eax,[r8+0x3]
   1400061ea:	44 32 1c 08          	xor    r11b,BYTE PTR [rax+rcx*1]
   1400061ee:	45 8d 47 fe          	lea    r8d,[r15-0x2]
   1400061f2:	44 88 64 24 70       	mov    BYTE PTR [rsp+0x70],r12b
   1400061f7:	8d 47 07             	lea    eax,[rdi+0x7]
   1400061fa:	44 88 1c 08          	mov    BYTE PTR [rax+rcx*1],r11b
   1400061fe:	41 f6 c0 03          	test   r8b,0x3
   140006202:	75 54                	jne    0x140006258
   140006204:	48 8d 15 dd ed ff ff 	lea    rdx,[rip+0xffffffffffffeddd]        # 0x140004fe8
   14000620b:	41 0f b6 c2          	movzx  eax,r10b
   14000620f:	0f b6 84 10 30 43 00 	movzx  eax,BYTE PTR [rax+rdx*1+0x4330]
   140006216:	00 
   140006217:	88 44 24 70          	mov    BYTE PTR [rsp+0x70],al
   14000621b:	41 0f b6 c3          	movzx  eax,r11b
   14000621f:	44 0f b6 94 10 30 43 	movzx  r10d,BYTE PTR [rax+rdx*1+0x4330]
   140006226:	00 00 
   140006228:	41 0f b6 c1          	movzx  eax,r9b
   14000622c:	44 0f b6 9c 10 30 43 	movzx  r11d,BYTE PTR [rax+rdx*1+0x4330]
   140006233:	00 00 
   140006235:	49 8b d5             	mov    rdx,r13
   140006238:	48 c1 ea 02          	shr    rdx,0x2
   14000623c:	41 0f b6 c4          	movzx  eax,r12b
   140006240:	4c 8d 25 a1 ed ff ff 	lea    r12,[rip+0xffffffffffffeda1]        # 0x140004fe8
   140006247:	46 0f b6 8c 22 30 45 	movzx  r9d,BYTE PTR [rdx+r12*1+0x4530]
   14000624e:	00 00 
   140006250:	46 32 8c 20 30 43 00 	xor    r9b,BYTE PTR [rax+r12*1+0x4330]
   140006257:	00 
   140006258:	44 0f b6 64 24 70    	movzx  r12d,BYTE PTR [rsp+0x70]
   14000625e:	42 8d 04 bd 08 00 00 	lea    eax,[r15*4+0x8]
   140006265:	00 
   140006266:	46 8d 04 85 00 00 00 	lea    r8d,[r8*4+0x0]
   14000626d:	00 
   14000626e:	45 32 0c 08          	xor    r9b,BYTE PTR [r8+rcx*1]
   140006272:	44 88 0c 08          	mov    BYTE PTR [rax+rcx*1],r9b
   140006276:	41 8d 40 01          	lea    eax,[r8+0x1]
   14000627a:	44 32 24 08          	xor    r12b,BYTE PTR [rax+rcx*1]
   14000627e:	8d 47 09             	lea    eax,[rdi+0x9]
   140006281:	44 88 24 08          	mov    BYTE PTR [rax+rcx*1],r12b
   140006285:	41 8d 40 02          	lea    eax,[r8+0x2]
   140006289:	44 32 14 08          	xor    r10b,BYTE PTR [rax+rcx*1]
   14000628d:	8d 47 0a             	lea    eax,[rdi+0xa]
   140006290:	44 88 14 08          	mov    BYTE PTR [rax+rcx*1],r10b
   140006294:	41 8d 40 03          	lea    eax,[r8+0x3]
   140006298:	44 32 1c 08          	xor    r11b,BYTE PTR [rax+rcx*1]
   14000629c:	45 0f b6 c4          	movzx  r8d,r12b
   1400062a0:	8d 47 0b             	lea    eax,[rdi+0xb]
   1400062a3:	44 88 1c 08          	mov    BYTE PTR [rax+rcx*1],r11b
   1400062a7:	41 8d 47 ff          	lea    eax,[r15-0x1]
   1400062ab:	a8 03                	test   al,0x3
   1400062ad:	75 52                	jne    0x140006301
   1400062af:	48 8d 15 32 ed ff ff 	lea    rdx,[rip+0xffffffffffffed32]        # 0x140004fe8
   1400062b6:	41 0f b6 c2          	movzx  eax,r10b
   1400062ba:	44 0f b6 84 10 30 43 	movzx  r8d,BYTE PTR [rax+rdx*1+0x4330]
   1400062c1:	00 00 
   1400062c3:	41 0f b6 c3          	movzx  eax,r11b
   1400062c7:	44 0f b6 94 10 30 43 	movzx  r10d,BYTE PTR [rax+rdx*1+0x4330]
   1400062ce:	00 00 
   1400062d0:	41 0f b6 c1          	movzx  eax,r9b
   1400062d4:	44 0f b6 9c 10 30 43 	movzx  r11d,BYTE PTR [rax+rdx*1+0x4330]
   1400062db:	00 00 
   1400062dd:	49 8d 55 01          	lea    rdx,[r13+0x1]
   1400062e1:	48 c1 ea 02          	shr    rdx,0x2
   1400062e5:	41 0f b6 c4          	movzx  eax,r12b
   1400062e9:	4c 8d 25 f8 ec ff ff 	lea    r12,[rip+0xffffffffffffecf8]        # 0x140004fe8
   1400062f0:	46 0f b6 8c 22 30 45 	movzx  r9d,BYTE PTR [rdx+r12*1+0x4530]
   1400062f7:	00 00 
   1400062f9:	46 32 8c 20 30 43 00 	xor    r9b,BYTE PTR [rax+r12*1+0x4330]
   140006300:	00 
   140006301:	48 8b 04 24          	mov    rax,QWORD PTR [rsp]
   140006305:	44 32 08             	xor    r9b,BYTE PTR [rax]
   140006308:	42 8d 04 bd 0c 00 00 	lea    eax,[r15*4+0xc]
   14000630f:	00 
   140006310:	44 88 0c 08          	mov    BYTE PTR [rax+rcx*1],r9b
   140006314:	48 8b 44 24 08       	mov    rax,QWORD PTR [rsp+0x8]
   140006319:	44 32 00             	xor    r8b,BYTE PTR [rax]
   14000631c:	8d 47 0d             	lea    eax,[rdi+0xd]
   14000631f:	44 88 04 08          	mov    BYTE PTR [rax+rcx*1],r8b
   140006323:	45 0f b6 e0          	movzx  r12d,r8b
   140006327:	48 8b 44 24 10       	mov    rax,QWORD PTR [rsp+0x10]
   14000632c:	44 32 10             	xor    r10b,BYTE PTR [rax]
   14000632f:	8d 47 0e             	lea    eax,[rdi+0xe]
   140006332:	44 88 14 08          	mov    BYTE PTR [rax+rcx*1],r10b
   140006336:	48 8b 44 24 18       	mov    rax,QWORD PTR [rsp+0x18]
   14000633b:	44 32 18             	xor    r11b,BYTE PTR [rax]
   14000633e:	8d 47 0f             	lea    eax,[rdi+0xf]
   140006341:	83 7c 24 78 00       	cmp    DWORD PTR [rsp+0x78],0x0
   140006346:	44 88 1c 08          	mov    BYTE PTR [rax+rcx*1],r11b
   14000634a:	75 52                	jne    0x14000639e
   14000634c:	48 8d 15 95 ec ff ff 	lea    rdx,[rip+0xffffffffffffec95]        # 0x140004fe8
   140006353:	41 0f b6 c2          	movzx  eax,r10b
   140006357:	44 0f b6 a4 10 30 43 	movzx  r12d,BYTE PTR [rax+rdx*1+0x4330]
   14000635e:	00 00 
   140006360:	41 0f b6 c3          	movzx  eax,r11b
   140006364:	44 0f b6 94 10 30 43 	movzx  r10d,BYTE PTR [rax+rdx*1+0x4330]
   14000636b:	00 00 
   14000636d:	41 0f b6 c1          	movzx  eax,r9b
   140006371:	44 0f b6 9c 10 30 43 	movzx  r11d,BYTE PTR [rax+rdx*1+0x4330]
   140006378:	00 00 
   14000637a:	49 8d 55 02          	lea    rdx,[r13+0x2]
   14000637e:	48 c1 ea 02          	shr    rdx,0x2
   140006382:	41 0f b6 c0          	movzx  eax,r8b
   140006386:	4c 8d 05 5b ec ff ff 	lea    r8,[rip+0xffffffffffffec5b]        # 0x140004fe8
   14000638d:	46 0f b6 8c 02 30 45 	movzx  r9d,BYTE PTR [rdx+r8*1+0x4530]
   140006394:	00 00 
   140006396:	46 32 8c 00 30 43 00 	xor    r9b,BYTE PTR [rax+r8*1+0x4330]
   14000639d:	00 
   14000639e:	42 8d 04 bd 10 00 00 	lea    eax,[r15*4+0x10]
   1400063a5:	00 
   1400063a6:	41 32 f2             	xor    sil,r10b
   1400063a9:	41 32 d9             	xor    bl,r9b
   1400063ac:	4c 8d 15 35 ec ff ff 	lea    r10,[rip+0xffffffffffffec35]        # 0x140004fe8
   1400063b3:	88 1c 08             	mov    BYTE PTR [rax+rcx*1],bl
   1400063b6:	45 32 f4             	xor    r14b,r12b
   1400063b9:	8d 47 11             	lea    eax,[rdi+0x11]
   1400063bc:	41 32 eb             	xor    bpl,r11b
   1400063bf:	44 88 34 08          	mov    BYTE PTR [rax+rcx*1],r14b
   1400063c3:	41 83 c7 05          	add    r15d,0x5
   1400063c7:	8d 47 12             	lea    eax,[rdi+0x12]
   1400063ca:	49 83 c5 05          	add    r13,0x5
   1400063ce:	40 88 34 08          	mov    BYTE PTR [rax+rcx*1],sil
   1400063d2:	8d 47 13             	lea    eax,[rdi+0x13]
   1400063d5:	40 88 2c 08          	mov    BYTE PTR [rax+rcx*1],bpl
   1400063d9:	41 83 ff 2c          	cmp    r15d,0x2c
   1400063dd:	0f 82 a5 fc ff ff    	jb     0x140006088
   1400063e3:	48 8b 5c 24 60       	mov    rbx,QWORD PTR [rsp+0x60]
   1400063e8:	48 83 c4 20          	add    rsp,0x20
   1400063ec:	41 5f                	pop    r15
   1400063ee:	41 5e                	pop    r14
   1400063f0:	41 5d                	pop    r13
   1400063f2:	41 5c                	pop    r12
   1400063f4:	5f                   	pop    rdi
   1400063f5:	5e                   	pop    rsi
   1400063f6:	5d                   	pop    rbp
   1400063f7:	c3                   	ret    
   1400063f8:	48 89 5c 24 18       	mov    QWORD PTR [rsp+0x18],rbx
   1400063fd:	48 89 6c 24 20       	mov    QWORD PTR [rsp+0x20],rbp
   140006402:	48 89 54 24 10       	mov    QWORD PTR [rsp+0x10],rdx
   140006407:	56                   	push   rsi
   140006408:	57                   	push   rdi
   140006409:	41 54                	push   r12
   14000640b:	41 55                	push   r13
   14000640d:	41 56                	push   r14
   14000640f:	41 57                	push   r15
   140006411:	4c 8b fa             	mov    r15,rdx
   140006414:	48 8b f1             	mov    rsi,rcx
   140006417:	4c 2b f9             	sub    r15,rcx
   14000641a:	41 b9 04 00 00 00    	mov    r9d,0x4
   140006420:	4c 89 7c 24 38       	mov    QWORD PTR [rsp+0x38],r15
   140006425:	0f 1f 00             	nop    DWORD PTR [rax]
   140006428:	41 b8 04 00 00 00    	mov    r8d,0x4
   14000642e:	66 66 0f 1f 84 00 00 	data16 nop WORD PTR [rax+rax*1+0x0]
   140006435:	00 00 00 
   140006438:	41 0f b6 04 0f       	movzx  eax,BYTE PTR [r15+rcx*1]
   14000643d:	30 01                	xor    BYTE PTR [rcx],al
   14000643f:	48 ff c1             	inc    rcx
   140006442:	49 83 e8 01          	sub    r8,0x1
   140006446:	75 f0                	jne    0x140006438
   140006448:	49 83 e9 01          	sub    r9,0x1
   14000644c:	75 da                	jne    0x140006428
   14000644e:	4c 8b 7c 24 40       	mov    r15,QWORD PTR [rsp+0x40]
   140006453:	41 b4 01             	mov    r12b,0x1
   140006456:	4c 8d 15 bb 2e 00 00 	lea    r10,[rip+0x2ebb]        # 0x140009318
   14000645d:	4c 8b c6             	mov    r8,rsi
   140006460:	41 b9 04 00 00 00    	mov    r9d,0x4
   140006466:	66 90                	xchg   ax,ax
   140006468:	49 8b c8             	mov    rcx,r8
   14000646b:	ba 04 00 00 00       	mov    edx,0x4
   140006470:	0f 1f 84 00 00 00 00 	nop    DWORD PTR [rax+rax*1+0x0]
   140006477:	00 
   140006478:	0f b6 01             	movzx  eax,BYTE PTR [rcx]
   14000647b:	48 8d 49 04          	lea    rcx,[rcx+0x4]
   14000647f:	42 0f b6 04 10       	movzx  eax,BYTE PTR [rax+r10*1]
   140006484:	88 41 fc             	mov    BYTE PTR [rcx-0x4],al
   140006487:	48 83 ea 01          	sub    rdx,0x1
   14000648b:	75 eb                	jne    0x140006478
   14000648d:	49 ff c0             	inc    r8
   140006490:	49 83 e9 01          	sub    r9,0x1
   140006494:	75 d2                	jne    0x140006468
   140006496:	0f b6 46 05          	movzx  eax,BYTE PTR [rsi+0x5]
   14000649a:	0f b6 4e 01          	movzx  ecx,BYTE PTR [rsi+0x1]
   14000649e:	88 46 01             	mov    BYTE PTR [rsi+0x1],al
   1400064a1:	0f b6 46 09          	movzx  eax,BYTE PTR [rsi+0x9]
   1400064a5:	88 46 05             	mov    BYTE PTR [rsi+0x5],al
   1400064a8:	0f b6 46 0d          	movzx  eax,BYTE PTR [rsi+0xd]
   1400064ac:	88 46 09             	mov    BYTE PTR [rsi+0x9],al
   1400064af:	0f b6 46 0a          	movzx  eax,BYTE PTR [rsi+0xa]
   1400064b3:	88 4e 0d             	mov    BYTE PTR [rsi+0xd],cl
   1400064b6:	0f b6 4e 02          	movzx  ecx,BYTE PTR [rsi+0x2]
   1400064ba:	88 46 02             	mov    BYTE PTR [rsi+0x2],al
   1400064bd:	0f b6 46 0e          	movzx  eax,BYTE PTR [rsi+0xe]
   1400064c1:	88 4e 0a             	mov    BYTE PTR [rsi+0xa],cl
   1400064c4:	0f b6 4e 06          	movzx  ecx,BYTE PTR [rsi+0x6]
   1400064c8:	88 46 06             	mov    BYTE PTR [rsi+0x6],al
   1400064cb:	0f b6 46 0f          	movzx  eax,BYTE PTR [rsi+0xf]
   1400064cf:	88 4e 0e             	mov    BYTE PTR [rsi+0xe],cl
   1400064d2:	0f b6 4e 03          	movzx  ecx,BYTE PTR [rsi+0x3]
   1400064d6:	88 46 03             	mov    BYTE PTR [rsi+0x3],al
   1400064d9:	0f b6 46 0b          	movzx  eax,BYTE PTR [rsi+0xb]
   1400064dd:	88 46 0f             	mov    BYTE PTR [rsi+0xf],al
   1400064e0:	0f b6 46 07          	movzx  eax,BYTE PTR [rsi+0x7]
   1400064e4:	88 46 0b             	mov    BYTE PTR [rsi+0xb],al
   1400064e7:	88 4e 07             	mov    BYTE PTR [rsi+0x7],cl
   1400064ea:	41 80 fc 0a          	cmp    r12b,0xa
   1400064ee:	0f 84 12 01 00 00    	je     0x140006606
   1400064f4:	4c 8d 76 02          	lea    r14,[rsi+0x2]
   1400064f8:	8d 6a 04             	lea    ebp,[rdx+0x4]
   1400064fb:	0f 1f 40 00          	nop    DWORD PTR [rax+0x0]
   1400064ff:	66 0f 1f 84 00 00 00 	nop    WORD PTR [rax+rax*1+0x0]
   140006506:	00 00 
   140006508:	41 0f b6 7e fe       	movzx  edi,BYTE PTR [r14-0x2]
   14000650d:	45 0f b6 46 ff       	movzx  r8d,BYTE PTR [r14-0x1]
   140006512:	40 0f b6 d7          	movzx  edx,dil
   140006516:	41 0f b6 5e 01       	movzx  ebx,BYTE PTR [r14+0x1]
   14000651b:	41 32 d0             	xor    dl,r8b
   14000651e:	45 0f b6 16          	movzx  r10d,BYTE PTR [r14]
   140006522:	4d 8d 76 04          	lea    r14,[r14+0x4]
   140006526:	0f b6 c2             	movzx  eax,dl
   140006529:	44 0f b6 cb          	movzx  r9d,bl
   14000652d:	c0 e8 07             	shr    al,0x7
   140006530:	02 d2                	add    dl,dl
   140006532:	0f b6 c0             	movzx  eax,al
   140006535:	45 32 ca             	xor    r9b,r10b
   140006538:	6b c8 1b             	imul   ecx,eax,0x1b
   14000653b:	45 0f b6 d9          	movzx  r11d,r9b
   14000653f:	44 32 df             	xor    r11b,dil
   140006542:	45 32 d8             	xor    r11b,r8b
   140006545:	32 ca                	xor    cl,dl
   140006547:	41 0f b6 d0          	movzx  edx,r8b
   14000654b:	40 32 cf             	xor    cl,dil
   14000654e:	41 32 d2             	xor    dl,r10b
   140006551:	41 32 cb             	xor    cl,r11b
   140006554:	0f b6 c2             	movzx  eax,dl
   140006557:	41 88 4e fa          	mov    BYTE PTR [r14-0x6],cl
   14000655b:	40 32 fb             	xor    dil,bl
   14000655e:	c0 e8 07             	shr    al,0x7
   140006561:	02 d2                	add    dl,dl
   140006563:	0f b6 c0             	movzx  eax,al
   140006566:	6b c8 1b             	imul   ecx,eax,0x1b
   140006569:	41 0f b6 c1          	movzx  eax,r9b
   14000656d:	c0 e8 07             	shr    al,0x7
   140006570:	45 02 c9             	add    r9b,r9b
   140006573:	0f b6 c0             	movzx  eax,al
   140006576:	32 ca                	xor    cl,dl
   140006578:	41 32 c8             	xor    cl,r8b
   14000657b:	41 32 cb             	xor    cl,r11b
   14000657e:	41 88 4e fb          	mov    BYTE PTR [r14-0x5],cl
   140006582:	6b c8 1b             	imul   ecx,eax,0x1b
   140006585:	40 0f b6 c7          	movzx  eax,dil
   140006589:	c0 e8 07             	shr    al,0x7
   14000658c:	40 02 ff             	add    dil,dil
   14000658f:	0f b6 c0             	movzx  eax,al
   140006592:	41 32 c9             	xor    cl,r9b
   140006595:	41 32 ca             	xor    cl,r10b
   140006598:	41 32 cb             	xor    cl,r11b
   14000659b:	41 88 4e fc          	mov    BYTE PTR [r14-0x4],cl
   14000659f:	6b c8 1b             	imul   ecx,eax,0x1b
   1400065a2:	40 32 cf             	xor    cl,dil
   1400065a5:	32 cb                	xor    cl,bl
   1400065a7:	41 32 cb             	xor    cl,r11b
   1400065aa:	41 88 4e fd          	mov    BYTE PTR [r14-0x3],cl
   1400065ae:	48 83 ed 01          	sub    rbp,0x1
   1400065b2:	0f 85 50 ff ff ff    	jne    0x140006508
   1400065b8:	45 0f b6 c4          	movzx  r8d,r12b
   1400065bc:	44 8d 4d 04          	lea    r9d,[rbp+0x4]
   1400065c0:	49 c1 e0 04          	shl    r8,0x4
   1400065c4:	48 8b c6             	mov    rax,rsi
   1400065c7:	4c 2b c6             	sub    r8,rsi
   1400065ca:	4d 03 c7             	add    r8,r15
   1400065cd:	66 66 66 0f 1f 84 00 	data16 data16 nop WORD PTR [rax+rax*1+0x0]
   1400065d4:	00 00 00 00 
   1400065d8:	ba 04 00 00 00       	mov    edx,0x4
   1400065dd:	66 66 66 0f 1f 84 00 	data16 data16 nop WORD PTR [rax+rax*1+0x0]
   1400065e4:	00 00 00 00 
   1400065e8:	41 0f b6 0c 00       	movzx  ecx,BYTE PTR [r8+rax*1]
   1400065ed:	30 08                	xor    BYTE PTR [rax],cl
   1400065ef:	48 ff c0             	inc    rax
   1400065f2:	48 83 ea 01          	sub    rdx,0x1
   1400065f6:	75 f0                	jne    0x1400065e8
   1400065f8:	49 83 e9 01          	sub    r9,0x1
   1400065fc:	75 da                	jne    0x1400065d8
   1400065fe:	41 fe c4             	inc    r12b
   140006601:	e9 50 fe ff ff       	jmp    0x140006456
   140006606:	4c 8b 7c 24 38       	mov    r15,QWORD PTR [rsp+0x38]
   14000660b:	ba 04 00 00 00       	mov    edx,0x4
   140006610:	0f 1f 84 00 00 00 00 	nop    DWORD PTR [rax+rax*1+0x0]
   140006617:	00 
   140006618:	b9 04 00 00 00       	mov    ecx,0x4
   14000661d:	66 66 66 0f 1f 84 00 	data16 data16 nop WORD PTR [rax+rax*1+0x0]
   140006624:	00 00 00 00 
   140006628:	41 0f b6 84 37 a0 00 	movzx  eax,BYTE PTR [r15+rsi*1+0xa0]
   14000662f:	00 00 
   140006631:	30 06                	xor    BYTE PTR [rsi],al
   140006633:	48 ff c6             	inc    rsi
   140006636:	48 83 e9 01          	sub    rcx,0x1
   14000663a:	75 ec                	jne    0x140006628
   14000663c:	48 83 ea 01          	sub    rdx,0x1
   140006640:	75 d6                	jne    0x140006618
   140006642:	48 8b 5c 24 48       	mov    rbx,QWORD PTR [rsp+0x48]
   140006647:	48 8b 6c 24 50       	mov    rbp,QWORD PTR [rsp+0x50]
   14000664c:	41 5f                	pop    r15
   14000664e:	41 5e                	pop    r14
   140006650:	41 5d                	pop    r13
   140006652:	41 5c                	pop    r12
   140006654:	5f                   	pop    rdi
   140006655:	5e                   	pop    rsi
   140006656:	c3                   	ret    
   140006657:	cc                   	int3   
   140006658:	48 8d 05 71 50 00 00 	lea    rax,[rip+0x5071]        # 0x14000b6d0
   14000665f:	c3                   	ret    
   140006660:	cc                   	int3   
   140006661:	cc                   	int3   
   140006662:	cc                   	int3   
   140006663:	cc                   	int3   
   140006664:	cc                   	int3   
   140006665:	cc                   	int3   
   140006666:	cc                   	int3   
   140006667:	cc                   	int3   
   140006668:	48 8d 05 59 50 00 00 	lea    rax,[rip+0x5059]        # 0x14000b6c8
   14000666f:	c3                   	ret    
   140006670:	cc                   	int3   
   140006671:	cc                   	int3   
   140006672:	cc                   	int3   
   140006673:	cc                   	int3   
   140006674:	cc                   	int3   
   140006675:	cc                   	int3   
   140006676:	cc                   	int3   
   140006677:	cc                   	int3   
   140006678:	48 89 4c 24 08       	mov    QWORD PTR [rsp+0x8],rcx
   14000667d:	48 89 54 24 10       	mov    QWORD PTR [rsp+0x10],rdx
   140006682:	4c 89 44 24 18       	mov    QWORD PTR [rsp+0x18],r8
   140006687:	4c 89 4c 24 20       	mov    QWORD PTR [rsp+0x20],r9
   14000668c:	53                   	push   rbx
   14000668d:	57                   	push   rdi
   14000668e:	48 83 ec 38          	sub    rsp,0x38
   140006692:	b9 01 00 00 00       	mov    ecx,0x1
   140006697:	48 8d 7c 24 58       	lea    rdi,[rsp+0x58]
   14000669c:	ff 15 d6 2a 00 00    	call   QWORD PTR [rip+0x2ad6]        # 0x140009178
   1400066a2:	48 8b d8             	mov    rbx,rax
   1400066a5:	e8 ae ff ff ff       	call   0x140006658
   1400066aa:	4c 8b 44 24 50       	mov    r8,QWORD PTR [rsp+0x50]
   1400066af:	45 33 c9             	xor    r9d,r9d
   1400066b2:	48 8b d3             	mov    rdx,rbx
   1400066b5:	48 89 7c 24 20       	mov    QWORD PTR [rsp+0x20],rdi
   1400066ba:	48 8b 08             	mov    rcx,QWORD PTR [rax]
   1400066bd:	ff 15 ad 2a 00 00    	call   QWORD PTR [rip+0x2aad]        # 0x140009170
   1400066c3:	48 83 c4 38          	add    rsp,0x38
   1400066c7:	5f                   	pop    rdi
   1400066c8:	5b                   	pop    rbx
   1400066c9:	c3                   	ret    
   1400066ca:	cc                   	int3   
   1400066cb:	cc                   	int3   
   1400066cc:	cc                   	int3   
   1400066cd:	cc                   	int3   
   1400066ce:	cc                   	int3   
   1400066cf:	cc                   	int3   
   1400066d0:	cc                   	int3   
   1400066d1:	cc                   	int3   
   1400066d2:	cc                   	int3   
   1400066d3:	cc                   	int3   
   1400066d4:	cc                   	int3   
   1400066d5:	cc                   	int3   
   1400066d6:	cc                   	int3   
   1400066d7:	cc                   	int3   
   1400066d8:	48 89 4c 24 08       	mov    QWORD PTR [rsp+0x8],rcx
   1400066dd:	48 89 54 24 10       	mov    QWORD PTR [rsp+0x10],rdx
   1400066e2:	4c 89 44 24 18       	mov    QWORD PTR [rsp+0x18],r8
   1400066e7:	4c 89 4c 24 20       	mov    QWORD PTR [rsp+0x20],r9
   1400066ec:	53                   	push   rbx
   1400066ed:	57                   	push   rdi
   1400066ee:	48 83 ec 38          	sub    rsp,0x38
   1400066f2:	33 c9                	xor    ecx,ecx
   1400066f4:	48 8d 7c 24 58       	lea    rdi,[rsp+0x58]
   1400066f9:	ff 15 79 2a 00 00    	call   QWORD PTR [rip+0x2a79]        # 0x140009178
   1400066ff:	48 8b d8             	mov    rbx,rax
   140006702:	e8 61 ff ff ff       	call   0x140006668
   140006707:	4c 8b 44 24 50       	mov    r8,QWORD PTR [rsp+0x50]
   14000670c:	45 33 c9             	xor    r9d,r9d
   14000670f:	48 8b d3             	mov    rdx,rbx
   140006712:	48 89 7c 24 20       	mov    QWORD PTR [rsp+0x20],rdi
   140006717:	48 8b 08             	mov    rcx,QWORD PTR [rax]
   14000671a:	ff 15 48 2a 00 00    	call   QWORD PTR [rip+0x2a48]        # 0x140009168
   140006720:	48 83 c4 38          	add    rsp,0x38
   140006724:	5f                   	pop    rdi
   140006725:	5b                   	pop    rbx
   140006726:	c3                   	ret    
   140006727:	cc                   	int3   
   140006728:	40 53                	rex push rbx
   14000672a:	48 83 ec 20          	sub    rsp,0x20
   14000672e:	48 8b d9             	mov    rbx,rcx
   140006731:	48 8b c2             	mov    rax,rdx
   140006734:	48 8d 0d ed 2a 00 00 	lea    rcx,[rip+0x2aed]        # 0x140009228
   14000673b:	0f 57 c0             	xorps  xmm0,xmm0
   14000673e:	48 8d 53 08          	lea    rdx,[rbx+0x8]
   140006742:	48 89 0b             	mov    QWORD PTR [rbx],rcx
   140006745:	48 8d 48 08          	lea    rcx,[rax+0x8]
   140006749:	0f 11 02             	movups XMMWORD PTR [rdx],xmm0
   14000674c:	ff 15 56 29 00 00    	call   QWORD PTR [rip+0x2956]        # 0x1400090a8
   140006752:	48 8b c3             	mov    rax,rbx
   140006755:	48 83 c4 20          	add    rsp,0x20
   140006759:	5b                   	pop    rbx
   14000675a:	c3                   	ret    
   14000675b:	cc                   	int3   
   14000675c:	cc                   	int3   
   14000675d:	cc                   	int3   
   14000675e:	cc                   	int3   
   14000675f:	cc                   	int3   
   140006760:	cc                   	int3   
   140006761:	cc                   	int3   
   140006762:	cc                   	int3   
   140006763:	cc                   	int3   
   140006764:	cc                   	int3   
   140006765:	cc                   	int3   
   140006766:	cc                   	int3   
   140006767:	cc                   	int3   
   140006768:	48 8b 51 08          	mov    rdx,QWORD PTR [rcx+0x8]
   14000676c:	48 8d 05 15 2b 00 00 	lea    rax,[rip+0x2b15]        # 0x140009288
   140006773:	48 85 d2             	test   rdx,rdx
   140006776:	48 0f 45 c2          	cmovne rax,rdx
   14000677a:	c3                   	ret    
   14000677b:	cc                   	int3   
   14000677c:	cc                   	int3   
   14000677d:	cc                   	int3   
   14000677e:	cc                   	int3   
   14000677f:	cc                   	int3   
   140006780:	cc                   	int3   
   140006781:	cc                   	int3   
   140006782:	cc                   	int3   
   140006783:	cc                   	int3   
   140006784:	cc                   	int3   
   140006785:	cc                   	int3   
   140006786:	cc                   	int3   
   140006787:	cc                   	int3   
   140006788:	48 89 5c 24 08       	mov    QWORD PTR [rsp+0x8],rbx
   14000678d:	57                   	push   rdi
   14000678e:	48 83 ec 20          	sub    rsp,0x20
   140006792:	48 8d 05 8f 2a 00 00 	lea    rax,[rip+0x2a8f]        # 0x140009228
   140006799:	48 8b f9             	mov    rdi,rcx
   14000679c:	48 89 01             	mov    QWORD PTR [rcx],rax
   14000679f:	8b da                	mov    ebx,edx
   1400067a1:	48 83 c1 08          	add    rcx,0x8
   1400067a5:	ff 15 05 29 00 00    	call   QWORD PTR [rip+0x2905]        # 0x1400090b0
   1400067ab:	f6 c3 01             	test   bl,0x1
   1400067ae:	74 0d                	je     0x1400067bd
   1400067b0:	ba 18 00 00 00       	mov    edx,0x18
   1400067b5:	48 8b cf             	mov    rcx,rdi
   1400067b8:	e8 07 0a 00 00       	call   0x1400071c4
   1400067bd:	48 8b 5c 24 30       	mov    rbx,QWORD PTR [rsp+0x30]
   1400067c2:	48 8b c7             	mov    rax,rdi
   1400067c5:	48 83 c4 20          	add    rsp,0x20
   1400067c9:	5f                   	pop    rdi
   1400067ca:	c3                   	ret    
   1400067cb:	cc                   	int3   
   1400067cc:	cc                   	int3   
   1400067cd:	cc                   	int3   
   1400067ce:	cc                   	int3   
   1400067cf:	cc                   	int3   
   1400067d0:	cc                   	int3   
   1400067d1:	cc                   	int3   
   1400067d2:	cc                   	int3   
   1400067d3:	cc                   	int3   
   1400067d4:	cc                   	int3   
   1400067d5:	cc                   	int3   
   1400067d6:	cc                   	int3   
   1400067d7:	cc                   	int3   
   1400067d8:	48 8d 05 49 2a 00 00 	lea    rax,[rip+0x2a49]        # 0x140009228
   1400067df:	48 89 01             	mov    QWORD PTR [rcx],rax
   1400067e2:	48 83 c1 08          	add    rcx,0x8
   1400067e6:	48 ff 25 c3 28 00 00 	rex.W jmp QWORD PTR [rip+0x28c3]        # 0x1400090b0
   1400067ed:	cc                   	int3   
   1400067ee:	cc                   	int3   
   1400067ef:	cc                   	int3   
   1400067f0:	cc                   	int3   
   1400067f1:	cc                   	int3   
   1400067f2:	cc                   	int3   
   1400067f3:	cc                   	int3   
   1400067f4:	cc                   	int3   
   1400067f5:	cc                   	int3   
   1400067f6:	cc                   	int3   
   1400067f7:	cc                   	int3   
   1400067f8:	48 8d 05 a1 2a 00 00 	lea    rax,[rip+0x2aa1]        # 0x1400092a0
   1400067ff:	48 c7 41 10 00 00 00 	mov    QWORD PTR [rcx+0x10],0x0
   140006806:	00 
   140006807:	48 89 41 08          	mov    QWORD PTR [rcx+0x8],rax
   14000680b:	48 8d 05 56 2a 00 00 	lea    rax,[rip+0x2a56]        # 0x140009268
   140006812:	48 89 01             	mov    QWORD PTR [rcx],rax
   140006815:	48 8b c1             	mov    rax,rcx
   140006818:	c3                   	ret    
   140006819:	cc                   	int3   
   14000681a:	cc                   	int3   
   14000681b:	cc                   	int3   
   14000681c:	cc                   	int3   
   14000681d:	cc                   	int3   
   14000681e:	cc                   	int3   
   14000681f:	cc                   	int3   
   140006820:	cc                   	int3   
   140006821:	cc                   	int3   
   140006822:	cc                   	int3   
   140006823:	cc                   	int3   
   140006824:	cc                   	int3   
   140006825:	cc                   	int3   
   140006826:	cc                   	int3   
   140006827:	cc                   	int3   
   140006828:	48 83 ec 48          	sub    rsp,0x48
   14000682c:	48 8d 4c 24 20       	lea    rcx,[rsp+0x20]
   140006831:	e8 c2 ff ff ff       	call   0x1400067f8
   140006836:	48 8d 15 43 37 00 00 	lea    rdx,[rip+0x3743]        # 0x140009f80
   14000683d:	48 8d 4c 24 20       	lea    rcx,[rsp+0x20]
   140006842:	e8 8d 16 00 00       	call   0x140007ed4
   140006847:	cc                   	int3   
   140006848:	40 53                	rex push rbx
   14000684a:	48 83 ec 20          	sub    rsp,0x20
   14000684e:	48 8b d9             	mov    rbx,rcx
   140006851:	48 8b c2             	mov    rax,rdx
   140006854:	48 8d 0d cd 29 00 00 	lea    rcx,[rip+0x29cd]        # 0x140009228
   14000685b:	0f 57 c0             	xorps  xmm0,xmm0
   14000685e:	48 8d 53 08          	lea    rdx,[rbx+0x8]
   140006862:	48 89 0b             	mov    QWORD PTR [rbx],rcx
   140006865:	48 8d 48 08          	lea    rcx,[rax+0x8]
   140006869:	0f 11 02             	movups XMMWORD PTR [rdx],xmm0
   14000686c:	ff 15 36 28 00 00    	call   QWORD PTR [rip+0x2836]        # 0x1400090a8
   140006872:	48 8d 05 ef 29 00 00 	lea    rax,[rip+0x29ef]        # 0x140009268
   140006879:	48 89 03             	mov    QWORD PTR [rbx],rax
   14000687c:	48 8b c3             	mov    rax,rbx
   14000687f:	48 83 c4 20          	add    rsp,0x20
   140006883:	5b                   	pop    rbx
   140006884:	c3                   	ret    
   140006885:	cc                   	int3   
   140006886:	cc                   	int3   
   140006887:	cc                   	int3   
   140006888:	40 53                	rex push rbx
   14000688a:	48 83 ec 20          	sub    rsp,0x20
   14000688e:	48 8b d9             	mov    rbx,rcx
   140006891:	48 8b c2             	mov    rax,rdx
   140006894:	48 8d 0d 8d 29 00 00 	lea    rcx,[rip+0x298d]        # 0x140009228
   14000689b:	0f 57 c0             	xorps  xmm0,xmm0
   14000689e:	48 8d 53 08          	lea    rdx,[rbx+0x8]
   1400068a2:	48 89 0b             	mov    QWORD PTR [rbx],rcx
   1400068a5:	48 8d 48 08          	lea    rcx,[rax+0x8]
   1400068a9:	0f 11 02             	movups XMMWORD PTR [rdx],xmm0
   1400068ac:	ff 15 f6 27 00 00    	call   QWORD PTR [rip+0x27f6]        # 0x1400090a8
   1400068b2:	48 8d 05 87 29 00 00 	lea    rax,[rip+0x2987]        # 0x140009240
   1400068b9:	48 89 03             	mov    QWORD PTR [rbx],rax
   1400068bc:	48 8b c3             	mov    rax,rbx
   1400068bf:	48 83 c4 20          	add    rsp,0x20
   1400068c3:	5b                   	pop    rbx
   1400068c4:	c3                   	ret    
   1400068c5:	cc                   	int3   
   1400068c6:	cc                   	int3   
   1400068c7:	cc                   	int3   
   1400068c8:	48 83 ec 28          	sub    rsp,0x28
   1400068cc:	48 8d 0d e5 29 00 00 	lea    rcx,[rip+0x29e5]        # 0x1400092b8
   1400068d3:	ff 15 a7 27 00 00    	call   QWORD PTR [rip+0x27a7]        # 0x140009080
   1400068d9:	cc                   	int3   
   1400068da:	cc                   	int3   
   1400068db:	cc                   	int3   
   1400068dc:	cc                   	int3   
   1400068dd:	cc                   	int3   
   1400068de:	cc                   	int3   
   1400068df:	cc                   	int3   
   1400068e0:	cc                   	int3   
   1400068e1:	cc                   	int3   
   1400068e2:	cc                   	int3   
   1400068e3:	cc                   	int3   
   1400068e4:	cc                   	int3   
   1400068e5:	cc                   	int3   
   1400068e6:	cc                   	int3   
   1400068e7:	cc                   	int3   
   1400068e8:	48 89 5c 24 10       	mov    QWORD PTR [rsp+0x10],rbx
   1400068ed:	48 89 74 24 18       	mov    QWORD PTR [rsp+0x18],rsi
   1400068f2:	48 89 7c 24 20       	mov    QWORD PTR [rsp+0x20],rdi
   1400068f7:	55                   	push   rbp
   1400068f8:	41 54                	push   r12
   1400068fa:	41 55                	push   r13
   1400068fc:	41 56                	push   r14
   1400068fe:	41 57                	push   r15
   140006900:	48 8d 6c 24 90       	lea    rbp,[rsp-0x70]
   140006905:	48 81 ec 70 01 00 00 	sub    rsp,0x170
   14000690c:	48 8b 05 dd 46 00 00 	mov    rax,QWORD PTR [rip+0x46dd]        # 0x14000aff0
   140006913:	48 33 c4             	xor    rax,rsp
   140006916:	48 89 45 60          	mov    QWORD PTR [rbp+0x60],rax
   14000691a:	4d 8b f1             	mov    r14,r9
   14000691d:	4c 89 4c 24 68       	mov    QWORD PTR [rsp+0x68],r9
   140006922:	4d 8b e8             	mov    r13,r8
   140006925:	4c 89 45 50          	mov    QWORD PTR [rbp+0x50],r8
   140006929:	4c 8b fa             	mov    r15,rdx
   14000692c:	48 89 54 24 60       	mov    QWORD PTR [rsp+0x60],rdx
   140006931:	48 89 4c 24 20       	mov    QWORD PTR [rsp+0x20],rcx
   140006936:	33 ff                	xor    edi,edi
   140006938:	48 89 7c 24 70       	mov    QWORD PTR [rsp+0x70],rdi
   14000693d:	48 89 7d 80          	mov    QWORD PTR [rbp-0x80],rdi
   140006941:	48 c7 45 88 0f 00 00 	mov    QWORD PTR [rbp-0x78],0xf
   140006948:	00 
   140006949:	44 8d 47 06          	lea    r8d,[rdi+0x6]
   14000694d:	48 8d 4c 24 70       	lea    rcx,[rsp+0x70]
   140006952:	e8 91 06 00 00       	call   0x140006fe8
   140006957:	44 8b c7             	mov    r8d,edi
   14000695a:	48 89 7c 24 40       	mov    QWORD PTR [rsp+0x40],rdi
   14000695f:	48 89 7c 24 50       	mov    QWORD PTR [rsp+0x50],rdi
   140006964:	41 b9 0f 00 00 00    	mov    r9d,0xf
   14000696a:	4c 89 4c 24 58       	mov    QWORD PTR [rsp+0x58],r9
   14000696f:	44 8b e7             	mov    r12d,edi
   140006972:	48 8d 0d a7 46 00 00 	lea    rcx,[rip+0x46a7]        # 0x14000b020
   140006979:	48 c7 c6 ff ff ff ff 	mov    rsi,0xffffffffffffffff
   140006980:	48 8b c6             	mov    rax,rsi
   140006983:	0f 1f 44 00 00       	nop    DWORD PTR [rax+rax*1+0x0]
   140006988:	48 ff c0             	inc    rax
   14000698b:	40 38 3c 01          	cmp    BYTE PTR [rcx+rax*1],dil
   14000698f:	75 f7                	jne    0x140006988
   140006991:	48 8b 5d 88          	mov    rbx,QWORD PTR [rbp-0x78]
   140006995:	4c 8b 54 24 70       	mov    r10,QWORD PTR [rsp+0x70]
   14000699a:	48 85 c0             	test   rax,rax
   14000699d:	0f 84 7d 00 00 00    	je     0x140006a20
   1400069a3:	4c 8b f7             	mov    r14,rdi
   1400069a6:	4c 8b df             	mov    r11,rdi
   1400069a9:	4c 8b 6d 80          	mov    r13,QWORD PTR [rbp-0x80]
   1400069ad:	4c 8d 3d 6c 46 00 00 	lea    r15,[rip+0x466c]        # 0x14000b020
   1400069b4:	0f 1f 40 00          	nop    DWORD PTR [rax+0x0]
   1400069b8:	48 8d 4c 24 70       	lea    rcx,[rsp+0x70]
   1400069bd:	48 83 fb 10          	cmp    rbx,0x10
   1400069c1:	49 0f 43 ca          	cmovae rcx,r10
   1400069c5:	33 d2                	xor    edx,edx
   1400069c7:	49 8b c3             	mov    rax,r11
   1400069ca:	49 f7 f5             	div    r13
   1400069cd:	48 03 d1             	add    rdx,rcx
   1400069d0:	43 0f b6 0c 3e       	movzx  ecx,BYTE PTR [r14+r15*1]
   1400069d5:	32 0a                	xor    cl,BYTE PTR [rdx]
   1400069d7:	48 8d 44 24 40       	lea    rax,[rsp+0x40]
   1400069dc:	49 83 f9 10          	cmp    r9,0x10
   1400069e0:	49 0f 43 c0          	cmovae rax,r8
   1400069e4:	41 88 0c 06          	mov    BYTE PTR [r14+rax*1],cl
   1400069e8:	41 ff c4             	inc    r12d
   1400069eb:	4d 8d 76 01          	lea    r14,[r14+0x1]
   1400069ef:	4d 63 dc             	movsxd r11,r12d
   1400069f2:	48 8b c6             	mov    rax,rsi
   1400069f5:	0f 1f 00             	nop    DWORD PTR [rax]
   1400069f8:	48 ff c0             	inc    rax
   1400069fb:	41 38 3c 07          	cmp    BYTE PTR [r15+rax*1],dil
   1400069ff:	75 f7                	jne    0x1400069f8
   140006a01:	4c 3b d8             	cmp    r11,rax
   140006a04:	73 0c                	jae    0x140006a12
   140006a06:	4c 8b 4c 24 58       	mov    r9,QWORD PTR [rsp+0x58]
   140006a0b:	4c 8b 44 24 40       	mov    r8,QWORD PTR [rsp+0x40]
   140006a10:	eb a6                	jmp    0x1400069b8
   140006a12:	4c 8b 7c 24 60       	mov    r15,QWORD PTR [rsp+0x60]
   140006a17:	4c 8b 74 24 68       	mov    r14,QWORD PTR [rsp+0x68]
   140006a1c:	4c 8b 6d 50          	mov    r13,QWORD PTR [rbp+0x50]
   140006a20:	48 83 fb 10          	cmp    rbx,0x10
   140006a24:	72 31                	jb     0x140006a57
   140006a26:	48 8d 53 01          	lea    rdx,[rbx+0x1]
   140006a2a:	49 8b c2             	mov    rax,r10
   140006a2d:	48 81 fa 00 10 00 00 	cmp    rdx,0x1000
   140006a34:	72 19                	jb     0x140006a4f
   140006a36:	48 83 c2 27          	add    rdx,0x27
   140006a3a:	4d 8b 52 f8          	mov    r10,QWORD PTR [r10-0x8]
   140006a3e:	49 2b c2             	sub    rax,r10
   140006a41:	48 83 c0 f8          	add    rax,0xfffffffffffffff8
   140006a45:	48 83 f8 1f          	cmp    rax,0x1f
   140006a49:	0f 87 9b 00 00 00    	ja     0x140006aea
   140006a4f:	49 8b ca             	mov    rcx,r10
   140006a52:	e8 6d 07 00 00       	call   0x1400071c4
   140006a57:	48 89 7d 80          	mov    QWORD PTR [rbp-0x80],rdi
   140006a5b:	48 c7 45 88 0f 00 00 	mov    QWORD PTR [rbp-0x78],0xf
   140006a62:	00 
   140006a63:	40 88 7c 24 70       	mov    BYTE PTR [rsp+0x70],dil
   140006a68:	48 8d 44 24 40       	lea    rax,[rsp+0x40]
   140006a6d:	48 89 44 24 30       	mov    QWORD PTR [rsp+0x30],rax
   140006a72:	48 8d 0d 57 28 00 00 	lea    rcx,[rip+0x2857]        # 0x1400092d0
   140006a79:	ff 15 71 25 00 00    	call   QWORD PTR [rip+0x2571]        # 0x140008ff0
   140006a7f:	48 85 c0             	test   rax,rax
   140006a82:	75 09                	jne    0x140006a8d
   140006a84:	33 c9                	xor    ecx,ecx
   140006a86:	ff 15 c4 26 00 00    	call   QWORD PTR [rip+0x26c4]        # 0x140009150
   140006a8c:	cc                   	int3   
   140006a8d:	48 8d 54 24 40       	lea    rdx,[rsp+0x40]
   140006a92:	48 83 7c 24 58 10    	cmp    QWORD PTR [rsp+0x58],0x10
   140006a98:	48 0f 43 54 24 40    	cmovae rdx,QWORD PTR [rsp+0x40]
   140006a9e:	48 8b c8             	mov    rcx,rax
   140006aa1:	ff 15 59 25 00 00    	call   QWORD PTR [rip+0x2559]        # 0x140009000
   140006aa7:	ff d0                	call   rax
   140006aa9:	8b df                	mov    ebx,edi
   140006aab:	b9 01 00 00 00       	mov    ecx,0x1
   140006ab0:	48 85 c0             	test   rax,rax
   140006ab3:	0f 44 d9             	cmove  ebx,ecx
   140006ab6:	48 8b 54 24 58       	mov    rdx,QWORD PTR [rsp+0x58]
   140006abb:	48 83 fa 10          	cmp    rdx,0x10
   140006abf:	72 35                	jb     0x140006af6
   140006ac1:	48 ff c2             	inc    rdx
   140006ac4:	48 8b 4c 24 40       	mov    rcx,QWORD PTR [rsp+0x40]
   140006ac9:	48 8b c1             	mov    rax,rcx
   140006acc:	48 81 fa 00 10 00 00 	cmp    rdx,0x1000
   140006ad3:	72 1c                	jb     0x140006af1
   140006ad5:	48 83 c2 27          	add    rdx,0x27
   140006ad9:	48 8b 49 f8          	mov    rcx,QWORD PTR [rcx-0x8]
   140006add:	48 2b c1             	sub    rax,rcx
   140006ae0:	48 83 c0 f8          	add    rax,0xfffffffffffffff8
   140006ae4:	48 83 f8 1f          	cmp    rax,0x1f
   140006ae8:	76 07                	jbe    0x140006af1
   140006aea:	ff 15 50 26 00 00    	call   QWORD PTR [rip+0x2650]        # 0x140009140
   140006af0:	cc                   	int3   
   140006af1:	e8 ce 06 00 00       	call   0x1400071c4
   140006af6:	48 89 7c 24 50       	mov    QWORD PTR [rsp+0x50],rdi
   140006afb:	48 c7 44 24 58 0f 00 	mov    QWORD PTR [rsp+0x58],0xf
   140006b02:	00 00 
   140006b04:	c6 44 24 40 00       	mov    BYTE PTR [rsp+0x40],0x0
   140006b09:	85 db                	test   ebx,ebx
   140006b0b:	75 0c                	jne    0x140006b19
   140006b0d:	b9 ff ff ff ff       	mov    ecx,0xffffffff
   140006b12:	ff 15 f0 24 00 00    	call   QWORD PTR [rip+0x24f0]        # 0x140009008
   140006b18:	cc                   	int3   
   140006b19:	49 8b d5             	mov    rdx,r13
   140006b1c:	48 8d 4d 90          	lea    rcx,[rbp-0x70]
   140006b20:	e8 c3 f4 ff ff       	call   0x140005fe8
   140006b25:	41 0f 10 06          	movups xmm0,XMMWORD PTR [r14]
   140006b29:	0f 11 45 40          	movups XMMWORD PTR [rbp+0x40],xmm0
   140006b2d:	4c 8b 64 24 20       	mov    r12,QWORD PTR [rsp+0x20]
   140006b32:	49 8b dc             	mov    rbx,r12
   140006b35:	4c 8d 45 40          	lea    r8,[rbp+0x40]
   140006b39:	41 be 04 00 00 00    	mov    r14d,0x4
   140006b3f:	66 0f 1f 84 00 00 00 	nop    WORD PTR [rax+rax*1+0x0]
   140006b46:	00 00 
   140006b48:	48 8b c3             	mov    rax,rbx
   140006b4b:	4c 2b c3             	sub    r8,rbx
   140006b4e:	ba 10 00 00 00       	mov    edx,0x10
   140006b53:	0f 1f 44 00 00       	nop    DWORD PTR [rax+rax*1+0x0]
   140006b58:	41 0f b6 0c 00       	movzx  ecx,BYTE PTR [r8+rax*1]
   140006b5d:	30 08                	xor    BYTE PTR [rax],cl
   140006b5f:	48 8d 40 01          	lea    rax,[rax+0x1]
   140006b63:	48 83 ea 01          	sub    rdx,0x1
   140006b67:	75 ef                	jne    0x140006b58
   140006b69:	48 8d 55 90          	lea    rdx,[rbp-0x70]
   140006b6d:	48 8b cb             	mov    rcx,rbx
   140006b70:	e8 83 f8 ff ff       	call   0x1400063f8
   140006b75:	4c 8b c3             	mov    r8,rbx
   140006b78:	48 83 c3 10          	add    rbx,0x10
   140006b7c:	49 83 ee 01          	sub    r14,0x1
   140006b80:	75 c6                	jne    0x140006b48
   140006b82:	41 0f 10 00          	movups xmm0,XMMWORD PTR [r8]
   140006b86:	0f 11 45 40          	movups XMMWORD PTR [rbp+0x40],xmm0
   140006b8a:	4c 8b c6             	mov    r8,rsi
   140006b8d:	49 ff c0             	inc    r8
   140006b90:	43 80 3c 07 00       	cmp    BYTE PTR [r15+r8*1],0x0
   140006b95:	75 f6                	jne    0x140006b8d
   140006b97:	4d 85 c0             	test   r8,r8
   140006b9a:	74 36                	je     0x140006bd2
   140006b9c:	4c 8b 8d c0 00 00 00 	mov    r9,QWORD PTR [rbp+0xc0]
   140006ba3:	0f 1f 44 00 00       	nop    DWORD PTR [rax+rax*1+0x0]
   140006ba8:	48 ff c6             	inc    rsi
   140006bab:	41 80 3c 31 00       	cmp    BYTE PTR [r9+rsi*1],0x0
   140006bb0:	75 f6                	jne    0x140006ba8
   140006bb2:	48 8b c7             	mov    rax,rdi
   140006bb5:	49 8b cc             	mov    rcx,r12
   140006bb8:	33 d2                	xor    edx,edx
   140006bba:	48 f7 f6             	div    rsi
   140006bbd:	42 0f b6 04 0a       	movzx  eax,BYTE PTR [rdx+r9*1]
   140006bc2:	30 01                	xor    BYTE PTR [rcx],al
   140006bc4:	ff c7                	inc    edi
   140006bc6:	48 8d 49 01          	lea    rcx,[rcx+0x1]
   140006bca:	48 63 c7             	movsxd rax,edi
   140006bcd:	49 3b c0             	cmp    rax,r8
   140006bd0:	72 e6                	jb     0x140006bb8
   140006bd2:	49 8b d4             	mov    rdx,r12
   140006bd5:	49 8b cf             	mov    rcx,r15
   140006bd8:	e8 4e 14 00 00       	call   0x14000802b
   140006bdd:	48 8d 4c 24 30       	lea    rcx,[rsp+0x30]
   140006be2:	85 c0                	test   eax,eax
   140006be4:	0f 85 81 00 00 00    	jne    0x140006c6b
   140006bea:	48 b8 49 e1 75 aa 34 	movabs rax,0x18a5734aa75e149
   140006bf1:	57 8a 01 
   140006bf4:	48 89 44 24 20       	mov    QWORD PTR [rsp+0x20],rax
   140006bf9:	48 8b 44 24 20       	mov    rax,QWORD PTR [rsp+0x20]
   140006bfe:	48 89 44 24 30       	mov    QWORD PTR [rsp+0x30],rax
   140006c03:	48 b8 74 5f f0 89 c3 	movabs rax,0xc689acc389f05f74
   140006c0a:	ac 89 c6 
   140006c0d:	48 89 44 24 20       	mov    QWORD PTR [rsp+0x20],rax
   140006c12:	48 8b 44 24 20       	mov    rax,QWORD PTR [rsp+0x20]
   140006c17:	48 89 44 24 38       	mov    QWORD PTR [rsp+0x38],rax
   140006c1c:	48 b8 43 a2 1a d8 46 	movabs rax,0x75e93246d81aa243
   140006c23:	32 e9 75 
   140006c26:	48 89 44 24 20       	mov    QWORD PTR [rsp+0x20],rax
   140006c2b:	48 8b 44 24 20       	mov    rax,QWORD PTR [rsp+0x20]
   140006c30:	48 89 45 50          	mov    QWORD PTR [rbp+0x50],rax
   140006c34:	48 b8 54 7e d1 a8 c3 	movabs rax,0xc689acc3a8d17e54
   140006c3b:	ac 89 c6 
   140006c3e:	48 89 44 24 20       	mov    QWORD PTR [rsp+0x20],rax
   140006c43:	48 8b 44 24 20       	mov    rax,QWORD PTR [rsp+0x20]
   140006c48:	48 89 45 58          	mov    QWORD PTR [rbp+0x58],rax
   140006c4c:	66 0f 6f 44 24 30    	movdqa xmm0,XMMWORD PTR [rsp+0x30]
   140006c52:	66 0f ef 45 50       	pxor   xmm0,XMMWORD PTR [rbp+0x50]
   140006c57:	66 0f 7f 44 24 30    	movdqa XMMWORD PTR [rsp+0x30],xmm0
   140006c5d:	e8 16 fa ff ff       	call   0x140006678
   140006c62:	33 c9                	xor    ecx,ecx
   140006c64:	ff 15 e6 24 00 00    	call   QWORD PTR [rip+0x24e6]        # 0x140009150
   140006c6a:	cc                   	int3   
   140006c6b:	48 b8 49 f5 68 b7 28 	movabs rax,0x54c95528b768f549
   140006c72:	55 c9 54 
   140006c75:	48 89 44 24 20       	mov    QWORD PTR [rsp+0x20],rax
   140006c7a:	48 8b 44 24 20       	mov    rax,QWORD PTR [rsp+0x20]
   140006c7f:	48 89 44 24 30       	mov    QWORD PTR [rsp+0x30],rax
   140006c84:	48 b8 75 5f d1 a8 c3 	movabs rax,0xc689acc3a8d15f75
   140006c8b:	ac 89 c6 
   140006c8e:	48 89 44 24 20       	mov    QWORD PTR [rsp+0x20],rax
   140006c93:	48 8b 44 24 20       	mov    rax,QWORD PTR [rsp+0x20]
   140006c98:	48 89 44 24 38       	mov    QWORD PTR [rsp+0x38],rax
   140006c9d:	48 b8 43 a2 1a d8 46 	movabs rax,0x75e93246d81aa243
   140006ca4:	32 e9 75 
   140006ca7:	48 89 44 24 20       	mov    QWORD PTR [rsp+0x20],rax
   140006cac:	48 8b 44 24 20       	mov    rax,QWORD PTR [rsp+0x20]
   140006cb1:	48 89 45 50          	mov    QWORD PTR [rbp+0x50],rax
   140006cb5:	48 b8 54 7e d1 a8 c3 	movabs rax,0xc689acc3a8d17e54
   140006cbc:	ac 89 c6 
   140006cbf:	48 89 44 24 20       	mov    QWORD PTR [rsp+0x20],rax
   140006cc4:	48 8b 44 24 20       	mov    rax,QWORD PTR [rsp+0x20]
   140006cc9:	48 89 45 58          	mov    QWORD PTR [rbp+0x58],rax
   140006ccd:	66 0f 6f 44 24 30    	movdqa xmm0,XMMWORD PTR [rsp+0x30]
   140006cd3:	66 0f ef 45 50       	pxor   xmm0,XMMWORD PTR [rbp+0x50]
   140006cd8:	66 0f 7f 44 24 30    	movdqa XMMWORD PTR [rsp+0x30],xmm0
   140006cde:	e8 95 f9 ff ff       	call   0x140006678
   140006ce3:	33 c9                	xor    ecx,ecx
   140006ce5:	ff 15 65 24 00 00    	call   QWORD PTR [rip+0x2465]        # 0x140009150
   140006ceb:	cc                   	int3   
   140006cec:	cc                   	int3   
   140006ced:	cc                   	int3   
   140006cee:	cc                   	int3   
   140006cef:	cc                   	int3   
   140006cf0:	cc                   	int3   
   140006cf1:	cc                   	int3   
   140006cf2:	cc                   	int3   
   140006cf3:	cc                   	int3   
   140006cf4:	cc                   	int3   
   140006cf5:	cc                   	int3   
   140006cf6:	cc                   	int3   
   140006cf7:	cc                   	int3   
   140006cf8:	48 89 5c 24 08       	mov    QWORD PTR [rsp+0x8],rbx
   140006cfd:	55                   	push   rbp
   140006cfe:	48 8d ac 24 f0 fe ff 	lea    rbp,[rsp-0x110]
   140006d05:	ff 
   140006d06:	48 81 ec 10 02 00 00 	sub    rsp,0x210
   140006d0d:	48 8b 05 dc 42 00 00 	mov    rax,QWORD PTR [rip+0x42dc]        # 0x14000aff0
   140006d14:	48 33 c4             	xor    rax,rsp
   140006d17:	48 89 85 00 01 00 00 	mov    QWORD PTR [rbp+0x100],rax
   140006d1e:	48 8d 0d bb 25 00 00 	lea    rcx,[rip+0x25bb]        # 0x1400092e0
   140006d25:	ff 15 cd 22 00 00    	call   QWORD PTR [rip+0x22cd]        # 0x140008ff8
   140006d2b:	48 85 c0             	test   rax,rax
   140006d2e:	74 5d                	je     0x140006d8d
   140006d30:	48 8d 15 b9 25 00 00 	lea    rdx,[rip+0x25b9]        # 0x1400092f0
   140006d37:	48 8b c8             	mov    rcx,rax
   140006d3a:	ff 15 c0 22 00 00    	call   QWORD PTR [rip+0x22c0]        # 0x140009000
   140006d40:	48 8b d8             	mov    rbx,rax
   140006d43:	48 85 c0             	test   rax,rax
   140006d46:	74 45                	je     0x140006d8d
   140006d48:	48 c7 44 24 50 00 00 	mov    QWORD PTR [rsp+0x50],0x0
   140006d4f:	00 00 
   140006d51:	ff 15 91 22 00 00    	call   QWORD PTR [rip+0x2291]        # 0x140008fe8
   140006d57:	41 b9 08 00 00 00    	mov    r9d,0x8
   140006d5d:	4c 8d 44 24 50       	lea    r8,[rsp+0x50]
   140006d62:	48 8b c8             	mov    rcx,rax
   140006d65:	48 8d 44 24 58       	lea    rax,[rsp+0x58]
   140006d6a:	48 89 44 24 20       	mov    QWORD PTR [rsp+0x20],rax
   140006d6f:	41 8d 51 16          	lea    edx,[r9+0x16]
   140006d73:	ff d3                	call   rbx
   140006d75:	85 c0                	test   eax,eax
   140006d77:	78 14                	js     0x140006d8d
   140006d79:	48 83 7c 24 50 00    	cmp    QWORD PTR [rsp+0x50],0x0
   140006d7f:	74 0c                	je     0x140006d8d
   140006d81:	b9 ff ff ff ff       	mov    ecx,0xffffffff
   140006d86:	ff 15 7c 22 00 00    	call   QWORD PTR [rip+0x227c]        # 0x140009008
   140006d8c:	cc                   	int3   
   140006d8d:	33 d2                	xor    edx,edx
   140006d8f:	c7 44 24 70 ac c3 57 	mov    DWORD PTR [rsp+0x70],0xa257c3ac
   140006d96:	a2 
   140006d97:	41 b8 00 01 00 00    	mov    r8d,0x100
   140006d9d:	c7 44 24 74 5a 22 38 	mov    DWORD PTR [rsp+0x74],0xbe38225a
   140006da4:	be 
   140006da5:	48 8d 4d 00          	lea    rcx,[rbp+0x0]
   140006da9:	c7 44 24 78 74 1e 38 	mov    DWORD PTR [rsp+0x78],0x27381e74
   140006db0:	27 
   140006db1:	c7 44 24 7c b2 98 b4 	mov    DWORD PTR [rsp+0x7c],0xa2b498b2
   140006db8:	a2 
   140006db9:	c7 44 24 30 00 01 02 	mov    DWORD PTR [rsp+0x30],0x3020100
   140006dc0:	03 
   140006dc1:	c7 44 24 34 04 05 06 	mov    DWORD PTR [rsp+0x34],0x7060504
   140006dc8:	07 
   140006dc9:	c7 44 24 38 08 09 0a 	mov    DWORD PTR [rsp+0x38],0xb0a0908
   140006dd0:	0b 
   140006dd1:	c7 44 24 3c 0c 0d 0e 	mov    DWORD PTR [rsp+0x3c],0xf0e0d0c
   140006dd8:	0f 
   140006dd9:	c7 45 c0 14 d5 44 b4 	mov    DWORD PTR [rbp-0x40],0xb444d514
   140006de0:	c7 45 c4 18 2a 9d 25 	mov    DWORD PTR [rbp-0x3c],0x259d2a18
   140006de7:	c7 45 c8 40 4d 07 cf 	mov    DWORD PTR [rbp-0x38],0xcf074d40
   140006dee:	c7 45 cc 36 0c 2d 59 	mov    DWORD PTR [rbp-0x34],0x592d0c36
   140006df5:	c7 45 d0 0f 1b 96 60 	mov    DWORD PTR [rbp-0x30],0x60961b0f
   140006dfc:	c7 45 d4 2d 1b af 26 	mov    DWORD PTR [rbp-0x2c],0x26af1b2d
   140006e03:	c7 45 d8 bc f7 42 63 	mov    DWORD PTR [rbp-0x28],0x6342f7bc
   140006e0a:	c7 45 dc 7b 6a 42 3e 	mov    DWORD PTR [rbp-0x24],0x3e426a7b
   140006e11:	c7 45 e0 3c b4 60 fd 	mov    DWORD PTR [rbp-0x20],0xfd60b43c
   140006e18:	c7 45 e4 02 39 5c 0a 	mov    DWORD PTR [rbp-0x1c],0xa5c3902
   140006e1f:	c7 45 e8 84 c0 a5 8b 	mov    DWORD PTR [rbp-0x18],0x8ba5c084
   140006e26:	c7 45 ec 14 6e bf a9 	mov    DWORD PTR [rbp-0x14],0xa9bf6e14
   140006e2d:	c7 45 f0 9e c3 de 5d 	mov    DWORD PTR [rbp-0x10],0x5ddec39e
   140006e34:	c7 45 f4 5a 2d 34 b2 	mov    DWORD PTR [rbp-0xc],0xb2342d5a
   140006e3b:	c7 45 f8 31 f0 dd 77 	mov    DWORD PTR [rbp-0x8],0x77ddf031
   140006e42:	c7 45 fc 2a a7 59 da 	mov    DWORD PTR [rbp-0x4],0xda59a72a
   140006e49:	c7 45 80 37 95 ac 6b 	mov    DWORD PTR [rbp-0x80],0x6bac9537
   140006e50:	c7 45 84 22 41 b3 40 	mov    DWORD PTR [rbp-0x7c],0x40b34122
   140006e57:	c7 45 88 ac 54 5a a8 	mov    DWORD PTR [rbp-0x78],0xa85a54ac
   140006e5e:	c7 45 8c 9b 56 2c 3d 	mov    DWORD PTR [rbp-0x74],0x3d2c569b
   140006e65:	c7 45 90 74 a6 6d 88 	mov    DWORD PTR [rbp-0x70],0x886da674
   140006e6c:	c7 45 94 5a 38 56 33 	mov    DWORD PTR [rbp-0x6c],0x3356385a
   140006e73:	c7 45 98 6a 58 5f b6 	mov    DWORD PTR [rbp-0x68],0xb65f586a
   140006e7a:	c7 45 9c 09 87 63 c5 	mov    DWORD PTR [rbp-0x64],0xc5638709
   140006e81:	c7 45 a0 30 50 03 7a 	mov    DWORD PTR [rbp-0x60],0x7a035030
   140006e88:	c7 45 a4 ba a8 b0 a4 	mov    DWORD PTR [rbp-0x5c],0xa4b0a8ba
   140006e8f:	c7 45 a8 14 88 c5 03 	mov    DWORD PTR [rbp-0x58],0x3c58814
   140006e96:	c7 45 ac 67 2a 9a 8c 	mov    DWORD PTR [rbp-0x54],0x8c9a2a67
   140006e9d:	c7 45 b0 64 a4 a3 04 	mov    DWORD PTR [rbp-0x50],0x4a3a464
   140006ea4:	c7 45 b4 4e b3 2d 81 	mov    DWORD PTR [rbp-0x4c],0x812db34e
   140006eab:	c7 45 b8 88 70 70 5f 	mov    DWORD PTR [rbp-0x48],0x5f707088
   140006eb2:	c7 45 bc c5 35 90 26 	mov    DWORD PTR [rbp-0x44],0x269035c5
   140006eb9:	e8 22 10 00 00       	call   0x140007ee0
   140006ebe:	48 b9 54 7e d1 a8 c3 	movabs rcx,0xc689acc3a8d17e54
   140006ec5:	ac 89 c6 
   140006ec8:	48 b8 05 ee 5b 9f 7c 	movabs rax,0x75e9127c9f5bee05
   140006ecf:	12 e9 75 
   140006ed2:	48 89 44 24 50       	mov    QWORD PTR [rsp+0x50],rax
   140006ed7:	48 8b 44 24 50       	mov    rax,QWORD PTR [rsp+0x50]
   140006edc:	48 89 44 24 40       	mov    QWORD PTR [rsp+0x40],rax
   140006ee1:	48 89 4c 24 50       	mov    QWORD PTR [rsp+0x50],rcx
   140006ee6:	48 8b 44 24 50       	mov    rax,QWORD PTR [rsp+0x50]
   140006eeb:	48 89 44 24 48       	mov    QWORD PTR [rsp+0x48],rax
   140006ef0:	48 b8 43 a2 1a d8 46 	movabs rax,0x75e93246d81aa243
   140006ef7:	32 e9 75 
   140006efa:	48 89 44 24 50       	mov    QWORD PTR [rsp+0x50],rax
   140006eff:	48 8b 44 24 50       	mov    rax,QWORD PTR [rsp+0x50]
   140006f04:	48 89 44 24 60       	mov    QWORD PTR [rsp+0x60],rax
   140006f09:	48 89 4c 24 50       	mov    QWORD PTR [rsp+0x50],rcx
   140006f0e:	48 8d 4c 24 40       	lea    rcx,[rsp+0x40]
   140006f13:	48 8b 44 24 50       	mov    rax,QWORD PTR [rsp+0x50]
   140006f18:	66 0f 6f 44 24 40    	movdqa xmm0,XMMWORD PTR [rsp+0x40]
   140006f1e:	48 89 44 24 68       	mov    QWORD PTR [rsp+0x68],rax
   140006f23:	66 0f ef 44 24 60    	pxor   xmm0,XMMWORD PTR [rsp+0x60]
   140006f29:	66 0f 7f 44 24 40    	movdqa XMMWORD PTR [rsp+0x40],xmm0
   140006f2f:	e8 44 f7 ff ff       	call   0x140006678
   140006f34:	48 8d 55 00          	lea    rdx,[rbp+0x0]
   140006f38:	48 8d 0d cd 23 00 00 	lea    rcx,[rip+0x23cd]        # 0x14000930c
   140006f3f:	e8 94 f7 ff ff       	call   0x1400066d8
   140006f44:	48 8d 45 80          	lea    rax,[rbp-0x80]
   140006f48:	4c 8d 4c 24 30       	lea    r9,[rsp+0x30]
   140006f4d:	48 89 44 24 20       	mov    QWORD PTR [rsp+0x20],rax
   140006f52:	4c 8d 44 24 70       	lea    r8,[rsp+0x70]
   140006f57:	48 8d 55 c0          	lea    rdx,[rbp-0x40]
   140006f5b:	48 8d 4d 00          	lea    rcx,[rbp+0x0]
   140006f5f:	e8 84 f9 ff ff       	call   0x1400068e8
   140006f64:	cc                   	int3   
   140006f65:	cc                   	int3   
   140006f66:	cc                   	int3   
   140006f67:	cc                   	int3   
   140006f68:	48 83 ec 28          	sub    rsp,0x28
   140006f6c:	83 fa 01             	cmp    edx,0x1
   140006f6f:	74 0a                	je     0x140006f7b
   140006f71:	b8 01 00 00 00       	mov    eax,0x1
   140006f76:	48 83 c4 28          	add    rsp,0x28
   140006f7a:	c3                   	ret    
   140006f7b:	e8 78 fd ff ff       	call   0x140006cf8
   140006f80:	cc                   	int3   
   140006f81:	cc                   	int3   
   140006f82:	cc                   	int3   
   140006f83:	cc                   	int3   
   140006f84:	cc                   	int3   
   140006f85:	cc                   	int3   
   140006f86:	cc                   	int3   
   140006f87:	cc                   	int3   
   140006f88:	40 53                	rex push rbx
   140006f8a:	48 83 ec 20          	sub    rsp,0x20
   140006f8e:	48 8b 51 18          	mov    rdx,QWORD PTR [rcx+0x18]
   140006f92:	48 8b d9             	mov    rbx,rcx
   140006f95:	48 83 fa 10          	cmp    rdx,0x10
   140006f99:	72 2c                	jb     0x140006fc7
   140006f9b:	48 8b 09             	mov    rcx,QWORD PTR [rcx]
   140006f9e:	48 ff c2             	inc    rdx
   140006fa1:	48 81 fa 00 10 00 00 	cmp    rdx,0x1000
   140006fa8:	72 18                	jb     0x140006fc2
   140006faa:	4c 8b 41 f8          	mov    r8,QWORD PTR [rcx-0x8]
   140006fae:	48 83 c2 27          	add    rdx,0x27
   140006fb2:	49 2b c8             	sub    rcx,r8
   140006fb5:	48 8d 41 f8          	lea    rax,[rcx-0x8]
   140006fb9:	48 83 f8 1f          	cmp    rax,0x1f
   140006fbd:	77 21                	ja     0x140006fe0
   140006fbf:	49 8b c8             	mov    rcx,r8
   140006fc2:	e8 fd 01 00 00       	call   0x1400071c4
   140006fc7:	48 c7 43 10 00 00 00 	mov    QWORD PTR [rbx+0x10],0x0
   140006fce:	00 
   140006fcf:	48 c7 43 18 0f 00 00 	mov    QWORD PTR [rbx+0x18],0xf
   140006fd6:	00 
   140006fd7:	c6 03 00             	mov    BYTE PTR [rbx],0x0
   140006fda:	48 83 c4 20          	add    rsp,0x20
   140006fde:	5b                   	pop    rbx
   140006fdf:	c3                   	ret    
   140006fe0:	ff 15 5a 21 00 00    	call   QWORD PTR [rip+0x215a]        # 0x140009140
   140006fe6:	cc                   	int3   
   140006fe7:	cc                   	int3   
   140006fe8:	48 89 5c 24 20       	mov    QWORD PTR [rsp+0x20],rbx
   140006fed:	56                   	push   rsi
   140006fee:	57                   	push   rdi
   140006fef:	41 56                	push   r14
   140006ff1:	48 83 ec 20          	sub    rsp,0x20
   140006ff5:	4c 8b 71 18          	mov    r14,QWORD PTR [rcx+0x18]
   140006ff9:	49 8b f0             	mov    rsi,r8
   140006ffc:	48 8b d9             	mov    rbx,rcx
   140006fff:	4d 3b c6             	cmp    r8,r14
   140007002:	77 34                	ja     0x140007038
   140007004:	48 8b f9             	mov    rdi,rcx
   140007007:	49 83 fe 10          	cmp    r14,0x10
   14000700b:	72 03                	jb     0x140007010
   14000700d:	48 8b 39             	mov    rdi,QWORD PTR [rcx]
   140007010:	48 89 71 10          	mov    QWORD PTR [rcx+0x10],rsi
   140007014:	48 8d 15 ad 22 00 00 	lea    rdx,[rip+0x22ad]        # 0x1400092c8
   14000701b:	48 8b cf             	mov    rcx,rdi
   14000701e:	e8 14 10 00 00       	call   0x140008037
   140007023:	48 8b c3             	mov    rax,rbx
   140007026:	c6 04 3e 00          	mov    BYTE PTR [rsi+rdi*1],0x0
   14000702a:	48 8b 5c 24 58       	mov    rbx,QWORD PTR [rsp+0x58]
   14000702f:	48 83 c4 20          	add    rsp,0x20
   140007033:	41 5e                	pop    r14
   140007035:	5f                   	pop    rdi
   140007036:	5e                   	pop    rsi
   140007037:	c3                   	ret    
   140007038:	48 bf ff ff ff ff ff 	movabs rdi,0x7fffffffffffffff
   14000703f:	ff ff 7f 
   140007042:	48 3b f7             	cmp    rsi,rdi
   140007045:	0f 87 f6 00 00 00    	ja     0x140007141
   14000704b:	48 8b ce             	mov    rcx,rsi
   14000704e:	48 89 6c 24 48       	mov    QWORD PTR [rsp+0x48],rbp
   140007053:	48 83 c9 0f          	or     rcx,0xf
   140007057:	48 3b cf             	cmp    rcx,rdi
   14000705a:	77 3a                	ja     0x140007096
   14000705c:	49 8b d6             	mov    rdx,r14
   14000705f:	48 8b c7             	mov    rax,rdi
   140007062:	48 d1 ea             	shr    rdx,1
   140007065:	48 2b c2             	sub    rax,rdx
   140007068:	4c 3b f0             	cmp    r14,rax
   14000706b:	77 29                	ja     0x140007096
   14000706d:	4a 8d 04 32          	lea    rax,[rdx+r14*1]
   140007071:	48 8b f9             	mov    rdi,rcx
   140007074:	48 3b c8             	cmp    rcx,rax
   140007077:	48 0f 42 f8          	cmovb  rdi,rax
   14000707b:	48 8d 47 01          	lea    rax,[rdi+0x1]
   14000707f:	48 3d 00 10 00 00    	cmp    rax,0x1000
   140007085:	72 35                	jb     0x1400070bc
   140007087:	48 8d 48 27          	lea    rcx,[rax+0x27]
   14000708b:	48 3b c8             	cmp    rcx,rax
   14000708e:	0f 86 b3 00 00 00    	jbe    0x140007147
   140007094:	eb 0a                	jmp    0x1400070a0
   140007096:	48 b9 27 00 00 00 00 	movabs rcx,0x8000000000000027
   14000709d:	00 00 80 
   1400070a0:	e8 e3 00 00 00       	call   0x140007188
   1400070a5:	48 85 c0             	test   rax,rax
   1400070a8:	0f 84 8c 00 00 00    	je     0x14000713a
   1400070ae:	48 8d 68 27          	lea    rbp,[rax+0x27]
   1400070b2:	48 83 e5 e0          	and    rbp,0xffffffffffffffe0
   1400070b6:	48 89 45 f8          	mov    QWORD PTR [rbp-0x8],rax
   1400070ba:	eb 14                	jmp    0x1400070d0
   1400070bc:	48 85 c0             	test   rax,rax
   1400070bf:	74 0d                	je     0x1400070ce
   1400070c1:	48 8b c8             	mov    rcx,rax
   1400070c4:	e8 bf 00 00 00       	call   0x140007188
   1400070c9:	48 8b e8             	mov    rbp,rax
   1400070cc:	eb 02                	jmp    0x1400070d0
   1400070ce:	33 ed                	xor    ebp,ebp
   1400070d0:	4c 8b c6             	mov    r8,rsi
   1400070d3:	48 89 73 10          	mov    QWORD PTR [rbx+0x10],rsi
   1400070d7:	48 8d 15 ea 21 00 00 	lea    rdx,[rip+0x21ea]        # 0x1400092c8
   1400070de:	48 89 7b 18          	mov    QWORD PTR [rbx+0x18],rdi
   1400070e2:	48 8b cd             	mov    rcx,rbp
   1400070e5:	e8 47 0f 00 00       	call   0x140008031
   1400070ea:	c6 04 2e 00          	mov    BYTE PTR [rsi+rbp*1],0x0
   1400070ee:	49 83 fe 10          	cmp    r14,0x10
   1400070f2:	72 2d                	jb     0x140007121
   1400070f4:	48 8b 0b             	mov    rcx,QWORD PTR [rbx]
   1400070f7:	49 8d 56 01          	lea    rdx,[r14+0x1]
   1400070fb:	48 81 fa 00 10 00 00 	cmp    rdx,0x1000
   140007102:	72 18                	jb     0x14000711c
   140007104:	4c 8b 41 f8          	mov    r8,QWORD PTR [rcx-0x8]
   140007108:	48 83 c2 27          	add    rdx,0x27
   14000710c:	49 2b c8             	sub    rcx,r8
   14000710f:	48 8d 41 f8          	lea    rax,[rcx-0x8]
   140007113:	48 83 f8 1f          	cmp    rax,0x1f
   140007117:	77 21                	ja     0x14000713a
   140007119:	49 8b c8             	mov    rcx,r8
   14000711c:	e8 a3 00 00 00       	call   0x1400071c4
   140007121:	48 89 2b             	mov    QWORD PTR [rbx],rbp
   140007124:	48 8b c3             	mov    rax,rbx
   140007127:	48 8b 6c 24 48       	mov    rbp,QWORD PTR [rsp+0x48]
   14000712c:	48 8b 5c 24 58       	mov    rbx,QWORD PTR [rsp+0x58]
   140007131:	48 83 c4 20          	add    rsp,0x20
   140007135:	41 5e                	pop    r14
   140007137:	5f                   	pop    rdi
   140007138:	5e                   	pop    rsi
   140007139:	c3                   	ret    
   14000713a:	ff 15 00 20 00 00    	call   QWORD PTR [rip+0x2000]        # 0x140009140
   140007140:	cc                   	int3   
   140007141:	e8 82 f7 ff ff       	call   0x1400068c8
   140007146:	cc                   	int3   
   140007147:	e8 dc f6 ff ff       	call   0x140006828
   14000714c:	cc                   	int3   
   14000714d:	cc                   	int3   
   14000714e:	cc                   	int3   
   14000714f:	cc                   	int3   
   140007150:	cc                   	int3   
   140007151:	cc                   	int3   
   140007152:	cc                   	int3   
   140007153:	cc                   	int3   
   140007154:	cc                   	int3   
   140007155:	cc                   	int3   
   140007156:	cc                   	int3   
   140007157:	cc                   	int3   
   140007158:	cc                   	int3   
   140007159:	cc                   	int3   
   14000715a:	cc                   	int3   
   14000715b:	cc                   	int3   
   14000715c:	cc                   	int3   
   14000715d:	cc                   	int3   
   14000715e:	66 66 0f 1f 84 00 00 	data16 nop WORD PTR [rax+rax*1+0x0]
   140007165:	00 00 00 
   140007168:	48 3b 0d 81 3e 00 00 	cmp    rcx,QWORD PTR [rip+0x3e81]        # 0x14000aff0
   14000716f:	75 10                	jne    0x140007181
   140007171:	48 c1 c1 10          	rol    rcx,0x10
   140007175:	66 f7 c1 ff ff       	test   cx,0xffff
   14000717a:	75 01                	jne    0x14000717d
   14000717c:	c3                   	ret    
   14000717d:	48 c1 c9 10          	ror    rcx,0x10
   140007181:	e9 06 04 00 00       	jmp    0x14000758c
   140007186:	cc                   	int3   
   140007187:	cc                   	int3   
   140007188:	40 53                	rex push rbx
   14000718a:	48 83 ec 20          	sub    rsp,0x20
   14000718e:	48 8b d9             	mov    rbx,rcx
   140007191:	eb 0f                	jmp    0x1400071a2
   140007193:	48 8b cb             	mov    rcx,rbx
   140007196:	e8 4b 0d 00 00       	call   0x140007ee6
   14000719b:	85 c0                	test   eax,eax
   14000719d:	74 13                	je     0x1400071b2
   14000719f:	48 8b cb             	mov    rcx,rbx
   1400071a2:	e8 45 0d 00 00       	call   0x140007eec
   1400071a7:	48 85 c0             	test   rax,rax
   1400071aa:	74 e7                	je     0x140007193
   1400071ac:	48 83 c4 20          	add    rsp,0x20
   1400071b0:	5b                   	pop    rbx
   1400071b1:	c3                   	ret    
   1400071b2:	48 83 fb ff          	cmp    rbx,0xffffffffffffffff
   1400071b6:	74 06                	je     0x1400071be
   1400071b8:	e8 37 05 00 00       	call   0x1400076f4
   1400071bd:	cc                   	int3   
   1400071be:	e8 65 f6 ff ff       	call   0x140006828
   1400071c3:	cc                   	int3   
   1400071c4:	e9 4b 05 00 00       	jmp    0x140007714
   1400071c9:	cc                   	int3   
   1400071ca:	cc                   	int3   
   1400071cb:	cc                   	int3   
   1400071cc:	40 53                	rex push rbx
   1400071ce:	48 83 ec 20          	sub    rsp,0x20
   1400071d2:	48 8d 05 27 20 00 00 	lea    rax,[rip+0x2027]        # 0x140009200
   1400071d9:	48 8b d9             	mov    rbx,rcx
   1400071dc:	48 89 01             	mov    QWORD PTR [rcx],rax
   1400071df:	f6 c2 01             	test   dl,0x1
   1400071e2:	74 0a                	je     0x1400071ee
   1400071e4:	ba 18 00 00 00       	mov    edx,0x18
   1400071e9:	e8 d6 ff ff ff       	call   0x1400071c4
   1400071ee:	48 8b c3             	mov    rax,rbx
   1400071f1:	48 83 c4 20          	add    rsp,0x20
   1400071f5:	5b                   	pop    rbx
   1400071f6:	c3                   	ret    
   1400071f7:	cc                   	int3   
   1400071f8:	48 83 ec 28          	sub    rsp,0x28
   1400071fc:	85 d2                	test   edx,edx
   1400071fe:	74 39                	je     0x140007239
   140007200:	83 ea 01             	sub    edx,0x1
   140007203:	74 28                	je     0x14000722d
   140007205:	83 ea 01             	sub    edx,0x1
   140007208:	74 16                	je     0x140007220
   14000720a:	83 fa 01             	cmp    edx,0x1
   14000720d:	74 0a                	je     0x140007219
   14000720f:	b8 01 00 00 00       	mov    eax,0x1
   140007214:	48 83 c4 28          	add    rsp,0x28
   140007218:	c3                   	ret    
   140007219:	e8 92 06 00 00       	call   0x1400078b0
   14000721e:	eb 05                	jmp    0x140007225
   140007220:	e8 63 06 00 00       	call   0x140007888
   140007225:	0f b6 c0             	movzx  eax,al
   140007228:	48 83 c4 28          	add    rsp,0x28
   14000722c:	c3                   	ret    
   14000722d:	49 8b d0             	mov    rdx,r8
   140007230:	48 83 c4 28          	add    rsp,0x28
   140007234:	e9 0f 00 00 00       	jmp    0x140007248
   140007239:	4d 85 c0             	test   r8,r8
   14000723c:	0f 95 c1             	setne  cl
   14000723f:	48 83 c4 28          	add    rsp,0x28
   140007243:	e9 18 01 00 00       	jmp    0x140007360
   140007248:	48 89 5c 24 08       	mov    QWORD PTR [rsp+0x8],rbx
   14000724d:	48 89 74 24 10       	mov    QWORD PTR [rsp+0x10],rsi
   140007252:	48 89 7c 24 20       	mov    QWORD PTR [rsp+0x20],rdi
   140007257:	41 56                	push   r14
   140007259:	48 83 ec 20          	sub    rsp,0x20
   14000725d:	48 8b f2             	mov    rsi,rdx
   140007260:	4c 8b f1             	mov    r14,rcx
   140007263:	33 c9                	xor    ecx,ecx
   140007265:	e8 02 07 00 00       	call   0x14000796c
   14000726a:	84 c0                	test   al,al
   14000726c:	0f 84 c8 00 00 00    	je     0x14000733a
   140007272:	e8 89 05 00 00       	call   0x140007800
   140007277:	8a d8                	mov    bl,al
   140007279:	88 44 24 40          	mov    BYTE PTR [rsp+0x40],al
   14000727d:	40 b7 01             	mov    dil,0x1
   140007280:	83 3d e1 43 00 00 00 	cmp    DWORD PTR [rip+0x43e1],0x0        # 0x14000b668
   140007287:	0f 85 c5 00 00 00    	jne    0x140007352
   14000728d:	c7 05 d1 43 00 00 01 	mov    DWORD PTR [rip+0x43d1],0x1        # 0x14000b668
   140007294:	00 00 00 
   140007297:	e8 d4 05 00 00       	call   0x140007870
   14000729c:	84 c0                	test   al,al
   14000729e:	74 4f                	je     0x1400072ef
   1400072a0:	e8 e3 09 00 00       	call   0x140007c88
   1400072a5:	e8 1e 05 00 00       	call   0x1400077c8
   1400072aa:	e8 35 05 00 00       	call   0x1400077e4
   1400072af:	48 8d 15 12 1f 00 00 	lea    rdx,[rip+0x1f12]        # 0x1400091c8
   1400072b6:	48 8d 0d 03 1f 00 00 	lea    rcx,[rip+0x1f03]        # 0x1400091c0
   1400072bd:	e8 36 0c 00 00       	call   0x140007ef8
   1400072c2:	85 c0                	test   eax,eax
   1400072c4:	75 29                	jne    0x1400072ef
   1400072c6:	e8 71 05 00 00       	call   0x14000783c
   1400072cb:	84 c0                	test   al,al
   1400072cd:	74 20                	je     0x1400072ef
   1400072cf:	48 8d 15 e2 1e 00 00 	lea    rdx,[rip+0x1ee2]        # 0x1400091b8
   1400072d6:	48 8d 0d d3 1e 00 00 	lea    rcx,[rip+0x1ed3]        # 0x1400091b0
   1400072dd:	e8 10 0c 00 00       	call   0x140007ef2
   1400072e2:	c7 05 7c 43 00 00 02 	mov    DWORD PTR [rip+0x437c],0x2        # 0x14000b668
   1400072e9:	00 00 00 
   1400072ec:	40 32 ff             	xor    dil,dil
   1400072ef:	8a cb                	mov    cl,bl
   1400072f1:	e8 e6 07 00 00       	call   0x140007adc
   1400072f6:	40 84 ff             	test   dil,dil
   1400072f9:	75 3f                	jne    0x14000733a
   1400072fb:	e8 2c 08 00 00       	call   0x140007b2c
   140007300:	48 8b d8             	mov    rbx,rax
   140007303:	48 83 38 00          	cmp    QWORD PTR [rax],0x0
   140007307:	74 24                	je     0x14000732d
   140007309:	48 8b c8             	mov    rcx,rax
   14000730c:	e8 33 07 00 00       	call   0x140007a44
   140007311:	84 c0                	test   al,al
   140007313:	74 18                	je     0x14000732d
   140007315:	4c 8b c6             	mov    r8,rsi
   140007318:	ba 02 00 00 00       	mov    edx,0x2
   14000731d:	49 8b ce             	mov    rcx,r14
   140007320:	48 8b 03             	mov    rax,QWORD PTR [rbx]
   140007323:	4c 8b 0d 6e 1e 00 00 	mov    r9,QWORD PTR [rip+0x1e6e]        # 0x140009198
   14000732a:	41 ff d1             	call   r9
   14000732d:	ff 05 a5 3d 00 00    	inc    DWORD PTR [rip+0x3da5]        # 0x14000b0d8
   140007333:	b8 01 00 00 00       	mov    eax,0x1
   140007338:	eb 02                	jmp    0x14000733c
   14000733a:	33 c0                	xor    eax,eax
   14000733c:	48 8b 5c 24 30       	mov    rbx,QWORD PTR [rsp+0x30]
   140007341:	48 8b 74 24 38       	mov    rsi,QWORD PTR [rsp+0x38]
   140007346:	48 8b 7c 24 48       	mov    rdi,QWORD PTR [rsp+0x48]
   14000734b:	48 83 c4 20          	add    rsp,0x20
   14000734f:	41 5e                	pop    r14
   140007351:	c3                   	ret    
   140007352:	b9 07 00 00 00       	mov    ecx,0x7
   140007357:	e8 e0 07 00 00       	call   0x140007b3c
   14000735c:	90                   	nop
   14000735d:	cc                   	int3   
   14000735e:	cc                   	int3   
   14000735f:	cc                   	int3   
   140007360:	48 89 5c 24 08       	mov    QWORD PTR [rsp+0x8],rbx
   140007365:	57                   	push   rdi
   140007366:	48 83 ec 30          	sub    rsp,0x30
   14000736a:	40 8a f9             	mov    dil,cl
   14000736d:	8b 05 65 3d 00 00    	mov    eax,DWORD PTR [rip+0x3d65]        # 0x14000b0d8
   140007373:	85 c0                	test   eax,eax
   140007375:	7f 0d                	jg     0x140007384
   140007377:	33 c0                	xor    eax,eax
   140007379:	48 8b 5c 24 40       	mov    rbx,QWORD PTR [rsp+0x40]
   14000737e:	48 83 c4 30          	add    rsp,0x30
   140007382:	5f                   	pop    rdi
   140007383:	c3                   	ret    
   140007384:	ff c8                	dec    eax
   140007386:	89 05 4c 3d 00 00    	mov    DWORD PTR [rip+0x3d4c],eax        # 0x14000b0d8
   14000738c:	e8 6f 04 00 00       	call   0x140007800
   140007391:	8a d8                	mov    bl,al
   140007393:	88 44 24 20          	mov    BYTE PTR [rsp+0x20],al
   140007397:	83 3d ca 42 00 00 02 	cmp    DWORD PTR [rip+0x42ca],0x2        # 0x14000b668
   14000739e:	75 37                	jne    0x1400073d7
   1400073a0:	e8 83 05 00 00       	call   0x140007928
   1400073a5:	e8 2e 04 00 00       	call   0x1400077d8
   1400073aa:	e8 15 09 00 00       	call   0x140007cc4
   1400073af:	83 25 b2 42 00 00 00 	and    DWORD PTR [rip+0x42b2],0x0        # 0x14000b668
   1400073b6:	8a cb                	mov    cl,bl
   1400073b8:	e8 1f 07 00 00       	call   0x140007adc
   1400073bd:	33 d2                	xor    edx,edx
   1400073bf:	40 8a cf             	mov    cl,dil
   1400073c2:	e8 39 07 00 00       	call   0x140007b00
   1400073c7:	f6 d8                	neg    al
   1400073c9:	1b db                	sbb    ebx,ebx
   1400073cb:	83 e3 01             	and    ebx,0x1
   1400073ce:	e8 85 05 00 00       	call   0x140007958
   1400073d3:	8b c3                	mov    eax,ebx
   1400073d5:	eb a2                	jmp    0x140007379
   1400073d7:	b9 07 00 00 00       	mov    ecx,0x7
   1400073dc:	e8 5b 07 00 00       	call   0x140007b3c
   1400073e1:	90                   	nop
   1400073e2:	90                   	nop
   1400073e3:	cc                   	int3   
   1400073e4:	48 8b c4             	mov    rax,rsp
   1400073e7:	48 89 58 20          	mov    QWORD PTR [rax+0x20],rbx
   1400073eb:	4c 89 40 18          	mov    QWORD PTR [rax+0x18],r8
   1400073ef:	89 50 10             	mov    DWORD PTR [rax+0x10],edx
   1400073f2:	48 89 48 08          	mov    QWORD PTR [rax+0x8],rcx
   1400073f6:	56                   	push   rsi
   1400073f7:	57                   	push   rdi
   1400073f8:	41 56                	push   r14
   1400073fa:	48 83 ec 40          	sub    rsp,0x40
   1400073fe:	49 8b f0             	mov    rsi,r8
   140007401:	8b fa                	mov    edi,edx
   140007403:	4c 8b f1             	mov    r14,rcx
   140007406:	85 d2                	test   edx,edx
   140007408:	75 0f                	jne    0x140007419
   14000740a:	39 15 c8 3c 00 00    	cmp    DWORD PTR [rip+0x3cc8],edx        # 0x14000b0d8
   140007410:	7f 07                	jg     0x140007419
   140007412:	33 c0                	xor    eax,eax
   140007414:	e9 ee 00 00 00       	jmp    0x140007507
   140007419:	8d 42 ff             	lea    eax,[rdx-0x1]
   14000741c:	83 f8 01             	cmp    eax,0x1
   14000741f:	77 45                	ja     0x140007466
   140007421:	48 8b 05 e0 1d 00 00 	mov    rax,QWORD PTR [rip+0x1de0]        # 0x140009208
   140007428:	48 85 c0             	test   rax,rax
   14000742b:	75 0a                	jne    0x140007437
   14000742d:	c7 44 24 30 01 00 00 	mov    DWORD PTR [rsp+0x30],0x1
   140007434:	00 
   140007435:	eb 14                	jmp    0x14000744b
   140007437:	ff 15 5b 1d 00 00    	call   QWORD PTR [rip+0x1d5b]        # 0x140009198
   14000743d:	8b d8                	mov    ebx,eax
   14000743f:	89 44 24 30          	mov    DWORD PTR [rsp+0x30],eax
   140007443:	85 c0                	test   eax,eax
   140007445:	0f 84 b2 00 00 00    	je     0x1400074fd
   14000744b:	4c 8b c6             	mov    r8,rsi
   14000744e:	8b d7                	mov    edx,edi
   140007450:	49 8b ce             	mov    rcx,r14
   140007453:	e8 a0 fd ff ff       	call   0x1400071f8
   140007458:	8b d8                	mov    ebx,eax
   14000745a:	89 44 24 30          	mov    DWORD PTR [rsp+0x30],eax
   14000745e:	85 c0                	test   eax,eax
   140007460:	0f 84 97 00 00 00    	je     0x1400074fd
   140007466:	4c 8b c6             	mov    r8,rsi
   140007469:	8b d7                	mov    edx,edi
   14000746b:	49 8b ce             	mov    rcx,r14
   14000746e:	e8 f5 fa ff ff       	call   0x140006f68
   140007473:	8b d8                	mov    ebx,eax
   140007475:	89 44 24 30          	mov    DWORD PTR [rsp+0x30],eax
   140007479:	83 ff 01             	cmp    edi,0x1
   14000747c:	75 36                	jne    0x1400074b4
   14000747e:	85 c0                	test   eax,eax
   140007480:	75 32                	jne    0x1400074b4
   140007482:	4c 8b c6             	mov    r8,rsi
   140007485:	33 d2                	xor    edx,edx
   140007487:	49 8b ce             	mov    rcx,r14
   14000748a:	e8 d9 fa ff ff       	call   0x140006f68
   14000748f:	48 85 f6             	test   rsi,rsi
   140007492:	0f 95 c1             	setne  cl
   140007495:	e8 c6 fe ff ff       	call   0x140007360
   14000749a:	48 8b 05 67 1d 00 00 	mov    rax,QWORD PTR [rip+0x1d67]        # 0x140009208
   1400074a1:	48 85 c0             	test   rax,rax
   1400074a4:	74 0e                	je     0x1400074b4
   1400074a6:	4c 8b c6             	mov    r8,rsi
   1400074a9:	33 d2                	xor    edx,edx
   1400074ab:	49 8b ce             	mov    rcx,r14
   1400074ae:	ff 15 e4 1c 00 00    	call   QWORD PTR [rip+0x1ce4]        # 0x140009198
   1400074b4:	85 ff                	test   edi,edi
   1400074b6:	74 05                	je     0x1400074bd
   1400074b8:	83 ff 03             	cmp    edi,0x3
   1400074bb:	75 40                	jne    0x1400074fd
   1400074bd:	4c 8b c6             	mov    r8,rsi
   1400074c0:	8b d7                	mov    edx,edi
   1400074c2:	49 8b ce             	mov    rcx,r14
   1400074c5:	e8 2e fd ff ff       	call   0x1400071f8
   1400074ca:	8b d8                	mov    ebx,eax
   1400074cc:	89 44 24 30          	mov    DWORD PTR [rsp+0x30],eax
   1400074d0:	85 c0                	test   eax,eax
   1400074d2:	74 29                	je     0x1400074fd
   1400074d4:	48 8b 05 2d 1d 00 00 	mov    rax,QWORD PTR [rip+0x1d2d]        # 0x140009208
   1400074db:	48 85 c0             	test   rax,rax
   1400074de:	75 09                	jne    0x1400074e9
   1400074e0:	8d 58 01             	lea    ebx,[rax+0x1]
   1400074e3:	89 5c 24 30          	mov    DWORD PTR [rsp+0x30],ebx
   1400074e7:	eb 14                	jmp    0x1400074fd
   1400074e9:	4c 8b c6             	mov    r8,rsi
   1400074ec:	8b d7                	mov    edx,edi
   1400074ee:	49 8b ce             	mov    rcx,r14
   1400074f1:	ff 15 a1 1c 00 00    	call   QWORD PTR [rip+0x1ca1]        # 0x140009198
   1400074f7:	8b d8                	mov    ebx,eax
   1400074f9:	89 44 24 30          	mov    DWORD PTR [rsp+0x30],eax
   1400074fd:	eb 06                	jmp    0x140007505
   1400074ff:	33 db                	xor    ebx,ebx
   140007501:	89 5c 24 30          	mov    DWORD PTR [rsp+0x30],ebx
   140007505:	8b c3                	mov    eax,ebx
   140007507:	48 8b 5c 24 78       	mov    rbx,QWORD PTR [rsp+0x78]
   14000750c:	48 83 c4 40          	add    rsp,0x40
   140007510:	41 5e                	pop    r14
   140007512:	5f                   	pop    rdi
   140007513:	5e                   	pop    rsi
   140007514:	c3                   	ret    
   140007515:	cc                   	int3   
   140007516:	cc                   	int3   
   140007517:	cc                   	int3   
   140007518:	48 89 5c 24 08       	mov    QWORD PTR [rsp+0x8],rbx
   14000751d:	48 89 74 24 10       	mov    QWORD PTR [rsp+0x10],rsi
   140007522:	57                   	push   rdi
   140007523:	48 83 ec 20          	sub    rsp,0x20
   140007527:	49 8b f8             	mov    rdi,r8
   14000752a:	8b da                	mov    ebx,edx
   14000752c:	48 8b f1             	mov    rsi,rcx
   14000752f:	83 fa 01             	cmp    edx,0x1
   140007532:	75 05                	jne    0x140007539
   140007534:	e8 e3 01 00 00       	call   0x14000771c
   140007539:	4c 8b c7             	mov    r8,rdi
   14000753c:	8b d3                	mov    edx,ebx
   14000753e:	48 8b ce             	mov    rcx,rsi
   140007541:	48 8b 5c 24 30       	mov    rbx,QWORD PTR [rsp+0x30]
   140007546:	48 8b 74 24 38       	mov    rsi,QWORD PTR [rsp+0x38]
   14000754b:	48 83 c4 20          	add    rsp,0x20
   14000754f:	5f                   	pop    rdi
   140007550:	e9 8f fe ff ff       	jmp    0x1400073e4
   140007555:	cc                   	int3   
   140007556:	cc                   	int3   
   140007557:	cc                   	int3   
   140007558:	40 53                	rex push rbx
   14000755a:	48 83 ec 20          	sub    rsp,0x20
   14000755e:	48 8b d9             	mov    rbx,rcx
   140007561:	33 c9                	xor    ecx,ecx
   140007563:	ff 15 bf 1a 00 00    	call   QWORD PTR [rip+0x1abf]        # 0x140009028
   140007569:	48 8b cb             	mov    rcx,rbx
   14000756c:	ff 15 ae 1a 00 00    	call   QWORD PTR [rip+0x1aae]        # 0x140009020
   140007572:	ff 15 70 1a 00 00    	call   QWORD PTR [rip+0x1a70]        # 0x140008fe8
   140007578:	48 8b c8             	mov    rcx,rax
   14000757b:	ba 09 04 00 c0       	mov    edx,0xc0000409
   140007580:	48 83 c4 20          	add    rsp,0x20
   140007584:	5b                   	pop    rbx
   140007585:	48 ff 25 a4 1a 00 00 	rex.W jmp QWORD PTR [rip+0x1aa4]        # 0x140009030
   14000758c:	48 89 4c 24 08       	mov    QWORD PTR [rsp+0x8],rcx
   140007591:	48 83 ec 38          	sub    rsp,0x38
   140007595:	b9 17 00 00 00       	mov    ecx,0x17
   14000759a:	ff 15 98 1a 00 00    	call   QWORD PTR [rip+0x1a98]        # 0x140009038
   1400075a0:	85 c0                	test   eax,eax
   1400075a2:	74 07                	je     0x1400075ab
   1400075a4:	b9 02 00 00 00       	mov    ecx,0x2
   1400075a9:	cd 29                	int    0x29
   1400075ab:	48 8d 0d d6 3b 00 00 	lea    rcx,[rip+0x3bd6]        # 0x14000b188
   1400075b2:	e8 a9 00 00 00       	call   0x140007660
   1400075b7:	48 8b 44 24 38       	mov    rax,QWORD PTR [rsp+0x38]
   1400075bc:	48 89 05 bd 3c 00 00 	mov    QWORD PTR [rip+0x3cbd],rax        # 0x14000b280
   1400075c3:	48 8d 44 24 38       	lea    rax,[rsp+0x38]
   1400075c8:	48 83 c0 08          	add    rax,0x8
   1400075cc:	48 89 05 4d 3c 00 00 	mov    QWORD PTR [rip+0x3c4d],rax        # 0x14000b220
   1400075d3:	48 8b 05 a6 3c 00 00 	mov    rax,QWORD PTR [rip+0x3ca6]        # 0x14000b280
   1400075da:	48 89 05 17 3b 00 00 	mov    QWORD PTR [rip+0x3b17],rax        # 0x14000b0f8
   1400075e1:	48 8b 44 24 40       	mov    rax,QWORD PTR [rsp+0x40]
   1400075e6:	48 89 05 1b 3c 00 00 	mov    QWORD PTR [rip+0x3c1b],rax        # 0x14000b208
   1400075ed:	c7 05 f1 3a 00 00 09 	mov    DWORD PTR [rip+0x3af1],0xc0000409        # 0x14000b0e8
   1400075f4:	04 00 c0 
   1400075f7:	c7 05 eb 3a 00 00 01 	mov    DWORD PTR [rip+0x3aeb],0x1        # 0x14000b0ec
   1400075fe:	00 00 00 
   140007601:	c7 05 f5 3a 00 00 01 	mov    DWORD PTR [rip+0x3af5],0x1        # 0x14000b100
   140007608:	00 00 00 
   14000760b:	b8 08 00 00 00       	mov    eax,0x8
   140007610:	48 6b c0 00          	imul   rax,rax,0x0
   140007614:	48 8d 0d ed 3a 00 00 	lea    rcx,[rip+0x3aed]        # 0x14000b108
   14000761b:	48 c7 04 01 02 00 00 	mov    QWORD PTR [rcx+rax*1],0x2
   140007622:	00 
   140007623:	b8 08 00 00 00       	mov    eax,0x8
   140007628:	48 6b c0 00          	imul   rax,rax,0x0
   14000762c:	48 8b 0d bd 39 00 00 	mov    rcx,QWORD PTR [rip+0x39bd]        # 0x14000aff0
   140007633:	48 89 4c 04 20       	mov    QWORD PTR [rsp+rax*1+0x20],rcx
   140007638:	b8 08 00 00 00       	mov    eax,0x8
   14000763d:	48 6b c0 01          	imul   rax,rax,0x1
   140007641:	48 8b 0d a0 39 00 00 	mov    rcx,QWORD PTR [rip+0x39a0]        # 0x14000afe8
   140007648:	48 89 4c 04 20       	mov    QWORD PTR [rsp+rax*1+0x20],rcx
   14000764d:	48 8d 0d bc 1b 00 00 	lea    rcx,[rip+0x1bbc]        # 0x140009210
   140007654:	e8 ff fe ff ff       	call   0x140007558
   140007659:	48 83 c4 38          	add    rsp,0x38
   14000765d:	c3                   	ret    
   14000765e:	cc                   	int3   
   14000765f:	cc                   	int3   
   140007660:	40 53                	rex push rbx
   140007662:	56                   	push   rsi
   140007663:	57                   	push   rdi
   140007664:	48 83 ec 40          	sub    rsp,0x40
   140007668:	48 8b d9             	mov    rbx,rcx
   14000766b:	ff 15 ff 19 00 00    	call   QWORD PTR [rip+0x19ff]        # 0x140009070
   140007671:	48 8b b3 f8 00 00 00 	mov    rsi,QWORD PTR [rbx+0xf8]
   140007678:	33 ff                	xor    edi,edi
   14000767a:	45 33 c0             	xor    r8d,r8d
   14000767d:	48 8d 54 24 60       	lea    rdx,[rsp+0x60]
   140007682:	48 8b ce             	mov    rcx,rsi
   140007685:	ff 15 85 19 00 00    	call   QWORD PTR [rip+0x1985]        # 0x140009010
   14000768b:	48 85 c0             	test   rax,rax
   14000768e:	74 39                	je     0x1400076c9
   140007690:	48 83 64 24 38 00    	and    QWORD PTR [rsp+0x38],0x0
   140007696:	48 8d 4c 24 68       	lea    rcx,[rsp+0x68]
   14000769b:	48 8b 54 24 60       	mov    rdx,QWORD PTR [rsp+0x60]
   1400076a0:	4c 8b c8             	mov    r9,rax
   1400076a3:	48 89 4c 24 30       	mov    QWORD PTR [rsp+0x30],rcx
   1400076a8:	4c 8b c6             	mov    r8,rsi
   1400076ab:	48 8d 4c 24 70       	lea    rcx,[rsp+0x70]
   1400076b0:	48 89 4c 24 28       	mov    QWORD PTR [rsp+0x28],rcx
   1400076b5:	33 c9                	xor    ecx,ecx
   1400076b7:	48 89 5c 24 20       	mov    QWORD PTR [rsp+0x20],rbx
   1400076bc:	ff 15 56 19 00 00    	call   QWORD PTR [rip+0x1956]        # 0x140009018
   1400076c2:	ff c7                	inc    edi
   1400076c4:	83 ff 02             	cmp    edi,0x2
   1400076c7:	7c b1                	jl     0x14000767a
   1400076c9:	48 83 c4 40          	add    rsp,0x40
   1400076cd:	5f                   	pop    rdi
   1400076ce:	5e                   	pop    rsi
   1400076cf:	5b                   	pop    rbx
   1400076d0:	c3                   	ret    
   1400076d1:	cc                   	int3   
   1400076d2:	cc                   	int3   
   1400076d3:	cc                   	int3   
   1400076d4:	48 83 61 10 00       	and    QWORD PTR [rcx+0x10],0x0
   1400076d9:	48 8d 05 70 1b 00 00 	lea    rax,[rip+0x1b70]        # 0x140009250
   1400076e0:	48 89 41 08          	mov    QWORD PTR [rcx+0x8],rax
   1400076e4:	48 8d 05 55 1b 00 00 	lea    rax,[rip+0x1b55]        # 0x140009240
   1400076eb:	48 89 01             	mov    QWORD PTR [rcx],rax
   1400076ee:	48 8b c1             	mov    rax,rcx
   1400076f1:	c3                   	ret    
   1400076f2:	cc                   	int3   
   1400076f3:	cc                   	int3   
   1400076f4:	48 83 ec 48          	sub    rsp,0x48
   1400076f8:	48 8d 4c 24 20       	lea    rcx,[rsp+0x20]
   1400076fd:	e8 d2 ff ff ff       	call   0x1400076d4
   140007702:	48 8d 15 a7 27 00 00 	lea    rdx,[rip+0x27a7]        # 0x140009eb0
   140007709:	48 8d 4c 24 20       	lea    rcx,[rsp+0x20]
   14000770e:	e8 c1 07 00 00       	call   0x140007ed4
   140007713:	cc                   	int3   
   140007714:	e9 e5 07 00 00       	jmp    0x140007efe
   140007719:	cc                   	int3   
   14000771a:	cc                   	int3   
   14000771b:	cc                   	int3   
   14000771c:	48 89 5c 24 20       	mov    QWORD PTR [rsp+0x20],rbx
   140007721:	55                   	push   rbp
   140007722:	48 8b ec             	mov    rbp,rsp
   140007725:	48 83 ec 20          	sub    rsp,0x20
   140007729:	48 8b 05 c0 38 00 00 	mov    rax,QWORD PTR [rip+0x38c0]        # 0x14000aff0
   140007730:	48 bb 32 a2 df 2d 99 	movabs rbx,0x2b992ddfa232
   140007737:	2b 00 00 
   14000773a:	48 3b c3             	cmp    rax,rbx
   14000773d:	75 74                	jne    0x1400077b3
   14000773f:	48 83 65 18 00       	and    QWORD PTR [rbp+0x18],0x0
   140007744:	48 8d 4d 18          	lea    rcx,[rbp+0x18]
   140007748:	ff 15 0a 19 00 00    	call   QWORD PTR [rip+0x190a]        # 0x140009058
   14000774e:	48 8b 45 18          	mov    rax,QWORD PTR [rbp+0x18]
   140007752:	48 89 45 10          	mov    QWORD PTR [rbp+0x10],rax
   140007756:	ff 15 f4 18 00 00    	call   QWORD PTR [rip+0x18f4]        # 0x140009050
   14000775c:	8b c0                	mov    eax,eax
   14000775e:	48 31 45 10          	xor    QWORD PTR [rbp+0x10],rax
   140007762:	ff 15 e0 18 00 00    	call   QWORD PTR [rip+0x18e0]        # 0x140009048
   140007768:	8b c0                	mov    eax,eax
   14000776a:	48 8d 4d 20          	lea    rcx,[rbp+0x20]
   14000776e:	48 31 45 10          	xor    QWORD PTR [rbp+0x10],rax
   140007772:	ff 15 c8 18 00 00    	call   QWORD PTR [rip+0x18c8]        # 0x140009040
   140007778:	8b 45 20             	mov    eax,DWORD PTR [rbp+0x20]
   14000777b:	48 8d 4d 10          	lea    rcx,[rbp+0x10]
   14000777f:	48 c1 e0 20          	shl    rax,0x20
   140007783:	48 33 45 20          	xor    rax,QWORD PTR [rbp+0x20]
   140007787:	48 33 45 10          	xor    rax,QWORD PTR [rbp+0x10]
   14000778b:	48 33 c1             	xor    rax,rcx
   14000778e:	48 b9 ff ff ff ff ff 	movabs rcx,0xffffffffffff
   140007795:	ff 00 00 
   140007798:	48 23 c1             	and    rax,rcx
   14000779b:	48 b9 33 a2 df 2d 99 	movabs rcx,0x2b992ddfa233
   1400077a2:	2b 00 00 
   1400077a5:	48 3b c3             	cmp    rax,rbx
   1400077a8:	48 0f 44 c1          	cmove  rax,rcx
   1400077ac:	48 89 05 3d 38 00 00 	mov    QWORD PTR [rip+0x383d],rax        # 0x14000aff0
   1400077b3:	48 8b 5c 24 48       	mov    rbx,QWORD PTR [rsp+0x48]
   1400077b8:	48 f7 d0             	not    rax
   1400077bb:	48 89 05 26 38 00 00 	mov    QWORD PTR [rip+0x3826],rax        # 0x14000afe8
   1400077c2:	48 83 c4 20          	add    rsp,0x20
   1400077c6:	5d                   	pop    rbp
   1400077c7:	c3                   	ret    
   1400077c8:	48 8d 0d 89 3e 00 00 	lea    rcx,[rip+0x3e89]        # 0x14000b658
   1400077cf:	48 ff 25 8a 18 00 00 	rex.W jmp QWORD PTR [rip+0x188a]        # 0x140009060
   1400077d6:	cc                   	int3   
   1400077d7:	cc                   	int3   
   1400077d8:	48 8d 0d 79 3e 00 00 	lea    rcx,[rip+0x3e79]        # 0x14000b658
   1400077df:	e9 f6 06 00 00       	jmp    0x140007eda
   1400077e4:	48 83 ec 28          	sub    rsp,0x28
   1400077e8:	e8 6b ee ff ff       	call   0x140006658
   1400077ed:	48 83 08 24          	or     QWORD PTR [rax],0x24
   1400077f1:	e8 72 ee ff ff       	call   0x140006668
   1400077f6:	48 83 08 02          	or     QWORD PTR [rax],0x2
   1400077fa:	48 83 c4 28          	add    rsp,0x28
   1400077fe:	c3                   	ret    
   1400077ff:	cc                   	int3   
   140007800:	48 83 ec 28          	sub    rsp,0x28
   140007804:	e8 a7 06 00 00       	call   0x140007eb0
   140007809:	85 c0                	test   eax,eax
   14000780b:	74 21                	je     0x14000782e
   14000780d:	65 48 8b 04 25 30 00 	mov    rax,QWORD PTR gs:0x30
   140007814:	00 00 
   140007816:	48 8b 48 08          	mov    rcx,QWORD PTR [rax+0x8]
   14000781a:	eb 05                	jmp    0x140007821
   14000781c:	48 3b c8             	cmp    rcx,rax
   14000781f:	74 14                	je     0x140007835
   140007821:	33 c0                	xor    eax,eax
   140007823:	f0 48 0f b1 0d 44 3e 	lock cmpxchg QWORD PTR [rip+0x3e44],rcx        # 0x14000b670
   14000782a:	00 00 
   14000782c:	75 ee                	jne    0x14000781c
   14000782e:	32 c0                	xor    al,al
   140007830:	48 83 c4 28          	add    rsp,0x28
   140007834:	c3                   	ret    
   140007835:	b0 01                	mov    al,0x1
   140007837:	eb f7                	jmp    0x140007830
   140007839:	cc                   	int3   
   14000783a:	cc                   	int3   
   14000783b:	cc                   	int3   
   14000783c:	48 83 ec 28          	sub    rsp,0x28
   140007840:	e8 6b 06 00 00       	call   0x140007eb0
   140007845:	85 c0                	test   eax,eax
   140007847:	74 07                	je     0x140007850
   140007849:	e8 b6 04 00 00       	call   0x140007d04
   14000784e:	eb 19                	jmp    0x140007869
   140007850:	e8 53 06 00 00       	call   0x140007ea8
   140007855:	8b c8                	mov    ecx,eax
   140007857:	e8 ae 06 00 00       	call   0x140007f0a
   14000785c:	85 c0                	test   eax,eax
   14000785e:	74 04                	je     0x140007864
   140007860:	32 c0                	xor    al,al
   140007862:	eb 07                	jmp    0x14000786b
   140007864:	e8 a7 06 00 00       	call   0x140007f10
   140007869:	b0 01                	mov    al,0x1
   14000786b:	48 83 c4 28          	add    rsp,0x28
   14000786f:	c3                   	ret    
   140007870:	48 83 ec 28          	sub    rsp,0x28
   140007874:	33 c9                	xor    ecx,ecx
   140007876:	e8 3d 01 00 00       	call   0x1400079b8
   14000787b:	84 c0                	test   al,al
   14000787d:	0f 95 c0             	setne  al
   140007880:	48 83 c4 28          	add    rsp,0x28
   140007884:	c3                   	ret    
   140007885:	cc                   	int3   
   140007886:	cc                   	int3   
   140007887:	cc                   	int3   
   140007888:	48 83 ec 28          	sub    rsp,0x28
   14000788c:	e8 97 06 00 00       	call   0x140007f28
   140007891:	84 c0                	test   al,al
   140007893:	75 04                	jne    0x140007899
   140007895:	32 c0                	xor    al,al
   140007897:	eb 12                	jmp    0x1400078ab
   140007899:	e8 8a 06 00 00       	call   0x140007f28
   14000789e:	84 c0                	test   al,al
   1400078a0:	75 07                	jne    0x1400078a9
   1400078a2:	e8 81 06 00 00       	call   0x140007f28
   1400078a7:	eb ec                	jmp    0x140007895
   1400078a9:	b0 01                	mov    al,0x1
   1400078ab:	48 83 c4 28          	add    rsp,0x28
   1400078af:	c3                   	ret    
   1400078b0:	48 83 ec 28          	sub    rsp,0x28
   1400078b4:	e8 6f 06 00 00       	call   0x140007f28
   1400078b9:	e8 6a 06 00 00       	call   0x140007f28
   1400078be:	b0 01                	mov    al,0x1
   1400078c0:	48 83 c4 28          	add    rsp,0x28
   1400078c4:	c3                   	ret    
   1400078c5:	cc                   	int3   
   1400078c6:	cc                   	int3   
   1400078c7:	cc                   	int3   
   1400078c8:	48 89 5c 24 08       	mov    QWORD PTR [rsp+0x8],rbx
   1400078cd:	48 89 6c 24 10       	mov    QWORD PTR [rsp+0x10],rbp
   1400078d2:	48 89 74 24 18       	mov    QWORD PTR [rsp+0x18],rsi
   1400078d7:	57                   	push   rdi
   1400078d8:	48 83 ec 20          	sub    rsp,0x20
   1400078dc:	49 8b f9             	mov    rdi,r9
   1400078df:	49 8b f0             	mov    rsi,r8
   1400078e2:	8b da                	mov    ebx,edx
   1400078e4:	48 8b e9             	mov    rbp,rcx
   1400078e7:	e8 c4 05 00 00       	call   0x140007eb0
   1400078ec:	85 c0                	test   eax,eax
   1400078ee:	75 16                	jne    0x140007906
   1400078f0:	83 fb 01             	cmp    ebx,0x1
   1400078f3:	75 11                	jne    0x140007906
   1400078f5:	4c 8b c6             	mov    r8,rsi
   1400078f8:	33 d2                	xor    edx,edx
   1400078fa:	48 8b cd             	mov    rcx,rbp
   1400078fd:	48 8b c7             	mov    rax,rdi
   140007900:	ff 15 92 18 00 00    	call   QWORD PTR [rip+0x1892]        # 0x140009198
   140007906:	48 8b 54 24 58       	mov    rdx,QWORD PTR [rsp+0x58]
   14000790b:	8b 4c 24 50          	mov    ecx,DWORD PTR [rsp+0x50]
   14000790f:	48 8b 5c 24 30       	mov    rbx,QWORD PTR [rsp+0x30]
   140007914:	48 8b 6c 24 38       	mov    rbp,QWORD PTR [rsp+0x38]
   140007919:	48 8b 74 24 40       	mov    rsi,QWORD PTR [rsp+0x40]
   14000791e:	48 83 c4 20          	add    rsp,0x20
   140007922:	5f                   	pop    rdi
   140007923:	e9 dc 05 00 00       	jmp    0x140007f04
   140007928:	48 83 ec 28          	sub    rsp,0x28
   14000792c:	e8 7f 05 00 00       	call   0x140007eb0
   140007931:	85 c0                	test   eax,eax
   140007933:	74 10                	je     0x140007945
   140007935:	48 8d 0d 44 3d 00 00 	lea    rcx,[rip+0x3d44]        # 0x14000b680
   14000793c:	48 83 c4 28          	add    rsp,0x28
   140007940:	e9 d7 05 00 00       	jmp    0x140007f1c
   140007945:	e8 e2 05 00 00       	call   0x140007f2c
   14000794a:	85 c0                	test   eax,eax
   14000794c:	75 05                	jne    0x140007953
   14000794e:	e8 cf 05 00 00       	call   0x140007f22
   140007953:	48 83 c4 28          	add    rsp,0x28
   140007957:	c3                   	ret    
   140007958:	48 83 ec 28          	sub    rsp,0x28
   14000795c:	33 c9                	xor    ecx,ecx
   14000795e:	e8 c5 05 00 00       	call   0x140007f28
   140007963:	48 83 c4 28          	add    rsp,0x28
   140007967:	e9 bc 05 00 00       	jmp    0x140007f28
   14000796c:	40 53                	rex push rbx
   14000796e:	48 83 ec 20          	sub    rsp,0x20
   140007972:	0f b6 05 ff 3c 00 00 	movzx  eax,BYTE PTR [rip+0x3cff]        # 0x14000b678
   140007979:	85 c9                	test   ecx,ecx
   14000797b:	bb 01 00 00 00       	mov    ebx,0x1
   140007980:	0f 44 c3             	cmove  eax,ebx
   140007983:	88 05 ef 3c 00 00    	mov    BYTE PTR [rip+0x3cef],al        # 0x14000b678
   140007989:	e8 76 03 00 00       	call   0x140007d04
   14000798e:	e8 95 05 00 00       	call   0x140007f28
   140007993:	84 c0                	test   al,al
   140007995:	75 04                	jne    0x14000799b
   140007997:	32 c0                	xor    al,al
   140007999:	eb 14                	jmp    0x1400079af
   14000799b:	e8 88 05 00 00       	call   0x140007f28
   1400079a0:	84 c0                	test   al,al
   1400079a2:	75 09                	jne    0x1400079ad
   1400079a4:	33 c9                	xor    ecx,ecx
   1400079a6:	e8 7d 05 00 00       	call   0x140007f28
   1400079ab:	eb ea                	jmp    0x140007997
   1400079ad:	8a c3                	mov    al,bl
   1400079af:	48 83 c4 20          	add    rsp,0x20
   1400079b3:	5b                   	pop    rbx
   1400079b4:	c3                   	ret    
   1400079b5:	cc                   	int3   
   1400079b6:	cc                   	int3   
   1400079b7:	cc                   	int3   
   1400079b8:	40 53                	rex push rbx
   1400079ba:	48 83 ec 20          	sub    rsp,0x20
   1400079be:	80 3d b4 3c 00 00 00 	cmp    BYTE PTR [rip+0x3cb4],0x0        # 0x14000b679
   1400079c5:	8b d9                	mov    ebx,ecx
   1400079c7:	75 67                	jne    0x140007a30
   1400079c9:	83 f9 01             	cmp    ecx,0x1
   1400079cc:	77 6a                	ja     0x140007a38
   1400079ce:	e8 dd 04 00 00       	call   0x140007eb0
   1400079d3:	85 c0                	test   eax,eax
   1400079d5:	74 28                	je     0x1400079ff
   1400079d7:	85 db                	test   ebx,ebx
   1400079d9:	75 24                	jne    0x1400079ff
   1400079db:	48 8d 0d 9e 3c 00 00 	lea    rcx,[rip+0x3c9e]        # 0x14000b680
   1400079e2:	e8 2f 05 00 00       	call   0x140007f16
   1400079e7:	85 c0                	test   eax,eax
   1400079e9:	75 10                	jne    0x1400079fb
   1400079eb:	48 8d 0d a6 3c 00 00 	lea    rcx,[rip+0x3ca6]        # 0x14000b698
   1400079f2:	e8 1f 05 00 00       	call   0x140007f16
   1400079f7:	85 c0                	test   eax,eax
   1400079f9:	74 2e                	je     0x140007a29
   1400079fb:	32 c0                	xor    al,al
   1400079fd:	eb 33                	jmp    0x140007a32
   1400079ff:	66 0f 6f 05 71 18 00 	movdqa xmm0,XMMWORD PTR [rip+0x1871]        # 0x140009278
   140007a06:	00 
   140007a07:	48 83 c8 ff          	or     rax,0xffffffffffffffff
   140007a0b:	f3 0f 7f 05 6d 3c 00 	movdqu XMMWORD PTR [rip+0x3c6d],xmm0        # 0x14000b680
   140007a12:	00 
   140007a13:	48 89 05 76 3c 00 00 	mov    QWORD PTR [rip+0x3c76],rax        # 0x14000b690
   140007a1a:	f3 0f 7f 05 76 3c 00 	movdqu XMMWORD PTR [rip+0x3c76],xmm0        # 0x14000b698
   140007a21:	00 
   140007a22:	48 89 05 7f 3c 00 00 	mov    QWORD PTR [rip+0x3c7f],rax        # 0x14000b6a8
   140007a29:	c6 05 49 3c 00 00 01 	mov    BYTE PTR [rip+0x3c49],0x1        # 0x14000b679
   140007a30:	b0 01                	mov    al,0x1
   140007a32:	48 83 c4 20          	add    rsp,0x20
   140007a36:	5b                   	pop    rbx
   140007a37:	c3                   	ret    
   140007a38:	b9 05 00 00 00       	mov    ecx,0x5
   140007a3d:	e8 fa 00 00 00       	call   0x140007b3c
   140007a42:	cc                   	int3   
   140007a43:	cc                   	int3   
   140007a44:	48 83 ec 18          	sub    rsp,0x18
   140007a48:	4c 8b c1             	mov    r8,rcx
   140007a4b:	b8 4d 5a 00 00       	mov    eax,0x5a4d
   140007a50:	66 39 05 91 d5 ff ff 	cmp    WORD PTR [rip+0xffffffffffffd591],ax        # 0x140004fe8
   140007a57:	75 78                	jne    0x140007ad1
   140007a59:	48 63 0d c4 d5 ff ff 	movsxd rcx,DWORD PTR [rip+0xffffffffffffd5c4]        # 0x140005024
   140007a60:	48 8d 15 81 d5 ff ff 	lea    rdx,[rip+0xffffffffffffd581]        # 0x140004fe8
   140007a67:	48 03 ca             	add    rcx,rdx
   140007a6a:	81 39 50 45 00 00    	cmp    DWORD PTR [rcx],0x4550
   140007a70:	75 5f                	jne    0x140007ad1
   140007a72:	b8 0b 02 00 00       	mov    eax,0x20b
   140007a77:	66 39 41 18          	cmp    WORD PTR [rcx+0x18],ax
   140007a7b:	75 54                	jne    0x140007ad1
   140007a7d:	4c 2b c2             	sub    r8,rdx
   140007a80:	0f b7 41 14          	movzx  eax,WORD PTR [rcx+0x14]
   140007a84:	48 8d 51 18          	lea    rdx,[rcx+0x18]
   140007a88:	48 03 d0             	add    rdx,rax
   140007a8b:	0f b7 41 06          	movzx  eax,WORD PTR [rcx+0x6]
   140007a8f:	48 8d 0c 80          	lea    rcx,[rax+rax*4]
   140007a93:	4c 8d 0c ca          	lea    r9,[rdx+rcx*8]
   140007a97:	48 89 14 24          	mov    QWORD PTR [rsp],rdx
   140007a9b:	49 3b d1             	cmp    rdx,r9
   140007a9e:	74 18                	je     0x140007ab8
   140007aa0:	8b 4a 0c             	mov    ecx,DWORD PTR [rdx+0xc]
   140007aa3:	4c 3b c1             	cmp    r8,rcx
   140007aa6:	72 0a                	jb     0x140007ab2
   140007aa8:	8b 42 08             	mov    eax,DWORD PTR [rdx+0x8]
   140007aab:	03 c1                	add    eax,ecx
   140007aad:	4c 3b c0             	cmp    r8,rax
   140007ab0:	72 08                	jb     0x140007aba
   140007ab2:	48 83 c2 28          	add    rdx,0x28
   140007ab6:	eb df                	jmp    0x140007a97
   140007ab8:	33 d2                	xor    edx,edx
   140007aba:	48 85 d2             	test   rdx,rdx
   140007abd:	75 04                	jne    0x140007ac3
   140007abf:	32 c0                	xor    al,al
   140007ac1:	eb 14                	jmp    0x140007ad7
   140007ac3:	83 7a 24 00          	cmp    DWORD PTR [rdx+0x24],0x0
   140007ac7:	7d 04                	jge    0x140007acd
   140007ac9:	32 c0                	xor    al,al
   140007acb:	eb 0a                	jmp    0x140007ad7
   140007acd:	b0 01                	mov    al,0x1
   140007acf:	eb 06                	jmp    0x140007ad7
   140007ad1:	32 c0                	xor    al,al
   140007ad3:	eb 02                	jmp    0x140007ad7
   140007ad5:	32 c0                	xor    al,al
   140007ad7:	48 83 c4 18          	add    rsp,0x18
   140007adb:	c3                   	ret    
   140007adc:	40 53                	rex push rbx
   140007ade:	48 83 ec 20          	sub    rsp,0x20
   140007ae2:	8a d9                	mov    bl,cl
   140007ae4:	e8 c7 03 00 00       	call   0x140007eb0
   140007ae9:	33 d2                	xor    edx,edx
   140007aeb:	85 c0                	test   eax,eax
   140007aed:	74 0b                	je     0x140007afa
   140007aef:	84 db                	test   bl,bl
   140007af1:	75 07                	jne    0x140007afa
   140007af3:	48 87 15 76 3b 00 00 	xchg   QWORD PTR [rip+0x3b76],rdx        # 0x14000b670
   140007afa:	48 83 c4 20          	add    rsp,0x20
   140007afe:	5b                   	pop    rbx
   140007aff:	c3                   	ret    
   140007b00:	40 53                	rex push rbx
   140007b02:	48 83 ec 20          	sub    rsp,0x20
   140007b06:	80 3d 6b 3b 00 00 00 	cmp    BYTE PTR [rip+0x3b6b],0x0        # 0x14000b678
   140007b0d:	8a d9                	mov    bl,cl
   140007b0f:	74 04                	je     0x140007b15
   140007b11:	84 d2                	test   dl,dl
   140007b13:	75 0c                	jne    0x140007b21
   140007b15:	e8 0e 04 00 00       	call   0x140007f28
   140007b1a:	8a cb                	mov    cl,bl
   140007b1c:	e8 07 04 00 00       	call   0x140007f28
   140007b21:	b0 01                	mov    al,0x1
   140007b23:	48 83 c4 20          	add    rsp,0x20
   140007b27:	5b                   	pop    rbx
   140007b28:	c3                   	ret    
   140007b29:	cc                   	int3   
   140007b2a:	cc                   	int3   
   140007b2b:	cc                   	int3   
   140007b2c:	48 8d 05 a5 3b 00 00 	lea    rax,[rip+0x3ba5]        # 0x14000b6d8
   140007b33:	c3                   	ret    
   140007b34:	83 25 75 3b 00 00 00 	and    DWORD PTR [rip+0x3b75],0x0        # 0x14000b6b0
   140007b3b:	c3                   	ret    
   140007b3c:	48 89 5c 24 08       	mov    QWORD PTR [rsp+0x8],rbx
   140007b41:	55                   	push   rbp
   140007b42:	48 8d ac 24 40 fb ff 	lea    rbp,[rsp-0x4c0]
   140007b49:	ff 
   140007b4a:	48 81 ec c0 05 00 00 	sub    rsp,0x5c0
   140007b51:	8b d9                	mov    ebx,ecx
   140007b53:	b9 17 00 00 00       	mov    ecx,0x17
   140007b58:	ff 15 da 14 00 00    	call   QWORD PTR [rip+0x14da]        # 0x140009038
   140007b5e:	85 c0                	test   eax,eax
   140007b60:	74 04                	je     0x140007b66
   140007b62:	8b cb                	mov    ecx,ebx
   140007b64:	cd 29                	int    0x29
   140007b66:	b9 03 00 00 00       	mov    ecx,0x3
   140007b6b:	e8 c4 ff ff ff       	call   0x140007b34
   140007b70:	33 d2                	xor    edx,edx
   140007b72:	48 8d 4d f0          	lea    rcx,[rbp-0x10]
   140007b76:	41 b8 d0 04 00 00    	mov    r8d,0x4d0
   140007b7c:	e8 5f 03 00 00       	call   0x140007ee0
   140007b81:	48 8d 4d f0          	lea    rcx,[rbp-0x10]
   140007b85:	ff 15 e5 14 00 00    	call   QWORD PTR [rip+0x14e5]        # 0x140009070
   140007b8b:	48 8b 9d e8 00 00 00 	mov    rbx,QWORD PTR [rbp+0xe8]
   140007b92:	48 8d 95 d8 04 00 00 	lea    rdx,[rbp+0x4d8]
   140007b99:	48 8b cb             	mov    rcx,rbx
   140007b9c:	45 33 c0             	xor    r8d,r8d
   140007b9f:	ff 15 6b 14 00 00    	call   QWORD PTR [rip+0x146b]        # 0x140009010
   140007ba5:	48 85 c0             	test   rax,rax
   140007ba8:	74 3c                	je     0x140007be6
   140007baa:	48 83 64 24 38 00    	and    QWORD PTR [rsp+0x38],0x0
   140007bb0:	48 8d 8d e0 04 00 00 	lea    rcx,[rbp+0x4e0]
   140007bb7:	48 8b 95 d8 04 00 00 	mov    rdx,QWORD PTR [rbp+0x4d8]
   140007bbe:	4c 8b c8             	mov    r9,rax
   140007bc1:	48 89 4c 24 30       	mov    QWORD PTR [rsp+0x30],rcx
   140007bc6:	4c 8b c3             	mov    r8,rbx
   140007bc9:	48 8d 8d e8 04 00 00 	lea    rcx,[rbp+0x4e8]
   140007bd0:	48 89 4c 24 28       	mov    QWORD PTR [rsp+0x28],rcx
   140007bd5:	48 8d 4d f0          	lea    rcx,[rbp-0x10]
   140007bd9:	48 89 4c 24 20       	mov    QWORD PTR [rsp+0x20],rcx
   140007bde:	33 c9                	xor    ecx,ecx
   140007be0:	ff 15 32 14 00 00    	call   QWORD PTR [rip+0x1432]        # 0x140009018
   140007be6:	48 8b 85 c8 04 00 00 	mov    rax,QWORD PTR [rbp+0x4c8]
   140007bed:	48 8d 4c 24 50       	lea    rcx,[rsp+0x50]
   140007bf2:	48 89 85 e8 00 00 00 	mov    QWORD PTR [rbp+0xe8],rax
   140007bf9:	33 d2                	xor    edx,edx
   140007bfb:	48 8d 85 c8 04 00 00 	lea    rax,[rbp+0x4c8]
   140007c02:	41 b8 98 00 00 00    	mov    r8d,0x98
   140007c08:	48 83 c0 08          	add    rax,0x8
   140007c0c:	48 89 85 88 00 00 00 	mov    QWORD PTR [rbp+0x88],rax
   140007c13:	e8 c8 02 00 00       	call   0x140007ee0
   140007c18:	48 8b 85 c8 04 00 00 	mov    rax,QWORD PTR [rbp+0x4c8]
   140007c1f:	48 89 44 24 60       	mov    QWORD PTR [rsp+0x60],rax
   140007c24:	c7 44 24 50 15 00 00 	mov    DWORD PTR [rsp+0x50],0x40000015
   140007c2b:	40 
   140007c2c:	c7 44 24 54 01 00 00 	mov    DWORD PTR [rsp+0x54],0x1
   140007c33:	00 
   140007c34:	ff 15 2e 14 00 00    	call   QWORD PTR [rip+0x142e]        # 0x140009068
   140007c3a:	83 f8 01             	cmp    eax,0x1
   140007c3d:	48 8d 44 24 50       	lea    rax,[rsp+0x50]
   140007c42:	48 89 44 24 40       	mov    QWORD PTR [rsp+0x40],rax
   140007c47:	48 8d 45 f0          	lea    rax,[rbp-0x10]
   140007c4b:	0f 94 c3             	sete   bl
   140007c4e:	48 89 44 24 48       	mov    QWORD PTR [rsp+0x48],rax
   140007c53:	33 c9                	xor    ecx,ecx
   140007c55:	ff 15 cd 13 00 00    	call   QWORD PTR [rip+0x13cd]        # 0x140009028
   140007c5b:	48 8d 4c 24 40       	lea    rcx,[rsp+0x40]
   140007c60:	ff 15 ba 13 00 00    	call   QWORD PTR [rip+0x13ba]        # 0x140009020
   140007c66:	85 c0                	test   eax,eax
   140007c68:	75 0c                	jne    0x140007c76
   140007c6a:	84 db                	test   bl,bl
   140007c6c:	75 08                	jne    0x140007c76
   140007c6e:	8d 48 03             	lea    ecx,[rax+0x3]
   140007c71:	e8 be fe ff ff       	call   0x140007b34
   140007c76:	48 8b 9c 24 d0 05 00 	mov    rbx,QWORD PTR [rsp+0x5d0]
   140007c7d:	00 
   140007c7e:	48 81 c4 c0 05 00 00 	add    rsp,0x5c0
   140007c85:	5d                   	pop    rbp
   140007c86:	c3                   	ret    
   140007c87:	cc                   	int3   
   140007c88:	48 89 5c 24 08       	mov    QWORD PTR [rsp+0x8],rbx
   140007c8d:	57                   	push   rdi
   140007c8e:	48 83 ec 20          	sub    rsp,0x20
   140007c92:	48 8d 1d 6f 1f 00 00 	lea    rbx,[rip+0x1f6f]        # 0x140009c08
   140007c99:	48 8d 3d 68 1f 00 00 	lea    rdi,[rip+0x1f68]        # 0x140009c08
   140007ca0:	eb 12                	jmp    0x140007cb4
   140007ca2:	48 8b 03             	mov    rax,QWORD PTR [rbx]
   140007ca5:	48 85 c0             	test   rax,rax
   140007ca8:	74 06                	je     0x140007cb0
   140007caa:	ff 15 e8 14 00 00    	call   QWORD PTR [rip+0x14e8]        # 0x140009198
   140007cb0:	48 83 c3 08          	add    rbx,0x8
   140007cb4:	48 3b df             	cmp    rbx,rdi
   140007cb7:	72 e9                	jb     0x140007ca2
   140007cb9:	48 8b 5c 24 30       	mov    rbx,QWORD PTR [rsp+0x30]
   140007cbe:	48 83 c4 20          	add    rsp,0x20
   140007cc2:	5f                   	pop    rdi
   140007cc3:	c3                   	ret    
   140007cc4:	48 89 5c 24 08       	mov    QWORD PTR [rsp+0x8],rbx
   140007cc9:	57                   	push   rdi
   140007cca:	48 83 ec 20          	sub    rsp,0x20
   140007cce:	48 8d 1d 43 1f 00 00 	lea    rbx,[rip+0x1f43]        # 0x140009c18
   140007cd5:	48 8d 3d 3c 1f 00 00 	lea    rdi,[rip+0x1f3c]        # 0x140009c18
   140007cdc:	eb 12                	jmp    0x140007cf0
   140007cde:	48 8b 03             	mov    rax,QWORD PTR [rbx]
   140007ce1:	48 85 c0             	test   rax,rax
   140007ce4:	74 06                	je     0x140007cec
   140007ce6:	ff 15 ac 14 00 00    	call   QWORD PTR [rip+0x14ac]        # 0x140009198
   140007cec:	48 83 c3 08          	add    rbx,0x8
   140007cf0:	48 3b df             	cmp    rbx,rdi
   140007cf3:	72 e9                	jb     0x140007cde
   140007cf5:	48 8b 5c 24 30       	mov    rbx,QWORD PTR [rsp+0x30]
   140007cfa:	48 83 c4 20          	add    rsp,0x20
   140007cfe:	5f                   	pop    rdi
   140007cff:	c3                   	ret    
   140007d00:	c2 00 00             	ret    0x0
   140007d03:	cc                   	int3   
   140007d04:	48 89 5c 24 10       	mov    QWORD PTR [rsp+0x10],rbx
   140007d09:	48 89 74 24 18       	mov    QWORD PTR [rsp+0x18],rsi
   140007d0e:	57                   	push   rdi
   140007d0f:	48 83 ec 10          	sub    rsp,0x10
   140007d13:	33 c0                	xor    eax,eax
   140007d15:	33 c9                	xor    ecx,ecx
   140007d17:	0f a2                	cpuid  
   140007d19:	44 8b c1             	mov    r8d,ecx
   140007d1c:	45 33 db             	xor    r11d,r11d
   140007d1f:	44 8b cb             	mov    r9d,ebx
   140007d22:	41 81 f0 6e 74 65 6c 	xor    r8d,0x6c65746e
   140007d29:	41 81 f1 47 65 6e 75 	xor    r9d,0x756e6547
   140007d30:	44 8b d2             	mov    r10d,edx
   140007d33:	8b f0                	mov    esi,eax
   140007d35:	33 c9                	xor    ecx,ecx
   140007d37:	41 8d 43 01          	lea    eax,[r11+0x1]
   140007d3b:	45 0b c8             	or     r9d,r8d
   140007d3e:	0f a2                	cpuid  
   140007d40:	41 81 f2 69 6e 65 49 	xor    r10d,0x49656e69
   140007d47:	89 04 24             	mov    DWORD PTR [rsp],eax
   140007d4a:	45 0b ca             	or     r9d,r10d
   140007d4d:	89 5c 24 04          	mov    DWORD PTR [rsp+0x4],ebx
   140007d51:	8b f9                	mov    edi,ecx
   140007d53:	89 4c 24 08          	mov    DWORD PTR [rsp+0x8],ecx
   140007d57:	89 54 24 0c          	mov    DWORD PTR [rsp+0xc],edx
   140007d5b:	75 50                	jne    0x140007dad
   140007d5d:	48 83 0d a3 32 00 00 	or     QWORD PTR [rip+0x32a3],0xffffffffffffffff        # 0x14000b008
   140007d64:	ff 
   140007d65:	25 f0 3f ff 0f       	and    eax,0xfff3ff0
   140007d6a:	3d c0 06 01 00       	cmp    eax,0x106c0
   140007d6f:	74 28                	je     0x140007d99
   140007d71:	3d 60 06 02 00       	cmp    eax,0x20660
   140007d76:	74 21                	je     0x140007d99
   140007d78:	3d 70 06 02 00       	cmp    eax,0x20670
   140007d7d:	74 1a                	je     0x140007d99
   140007d7f:	05 b0 f9 fc ff       	add    eax,0xfffcf9b0
   140007d84:	83 f8 20             	cmp    eax,0x20
   140007d87:	77 24                	ja     0x140007dad
   140007d89:	48 b9 01 00 01 00 01 	movabs rcx,0x100010001
   140007d90:	00 00 00 
   140007d93:	48 0f a3 c1          	bt     rcx,rax
   140007d97:	73 14                	jae    0x140007dad
   140007d99:	44 8b 05 20 39 00 00 	mov    r8d,DWORD PTR [rip+0x3920]        # 0x14000b6c0
   140007da0:	41 83 c8 01          	or     r8d,0x1
   140007da4:	44 89 05 15 39 00 00 	mov    DWORD PTR [rip+0x3915],r8d        # 0x14000b6c0
   140007dab:	eb 07                	jmp    0x140007db4
   140007dad:	44 8b 05 0c 39 00 00 	mov    r8d,DWORD PTR [rip+0x390c]        # 0x14000b6c0
   140007db4:	b8 07 00 00 00       	mov    eax,0x7
   140007db9:	44 8d 48 fb          	lea    r9d,[rax-0x5]
   140007dbd:	3b f0                	cmp    esi,eax
   140007dbf:	7c 26                	jl     0x140007de7
   140007dc1:	33 c9                	xor    ecx,ecx
   140007dc3:	0f a2                	cpuid  
   140007dc5:	89 04 24             	mov    DWORD PTR [rsp],eax
   140007dc8:	44 8b db             	mov    r11d,ebx
   140007dcb:	89 5c 24 04          	mov    DWORD PTR [rsp+0x4],ebx
   140007dcf:	89 4c 24 08          	mov    DWORD PTR [rsp+0x8],ecx
   140007dd3:	89 54 24 0c          	mov    DWORD PTR [rsp+0xc],edx
   140007dd7:	0f ba e3 09          	bt     ebx,0x9
   140007ddb:	73 0a                	jae    0x140007de7
   140007ddd:	45 0b c1             	or     r8d,r9d
   140007de0:	44 89 05 d9 38 00 00 	mov    DWORD PTR [rip+0x38d9],r8d        # 0x14000b6c0
   140007de7:	c7 05 0f 32 00 00 01 	mov    DWORD PTR [rip+0x320f],0x1        # 0x14000b000
   140007dee:	00 00 00 
   140007df1:	44 89 0d 0c 32 00 00 	mov    DWORD PTR [rip+0x320c],r9d        # 0x14000b004
   140007df8:	0f ba e7 14          	bt     edi,0x14
   140007dfc:	0f 83 91 00 00 00    	jae    0x140007e93
   140007e02:	44 89 0d f7 31 00 00 	mov    DWORD PTR [rip+0x31f7],r9d        # 0x14000b000
   140007e09:	bb 06 00 00 00       	mov    ebx,0x6
   140007e0e:	89 1d f0 31 00 00    	mov    DWORD PTR [rip+0x31f0],ebx        # 0x14000b004
   140007e14:	0f ba e7 1b          	bt     edi,0x1b
   140007e18:	73 79                	jae    0x140007e93
   140007e1a:	0f ba e7 1c          	bt     edi,0x1c
   140007e1e:	73 73                	jae    0x140007e93
   140007e20:	33 c9                	xor    ecx,ecx
   140007e22:	0f 01 d0             	xgetbv 
   140007e25:	48 c1 e2 20          	shl    rdx,0x20
   140007e29:	48 0b d0             	or     rdx,rax
   140007e2c:	48 89 54 24 20       	mov    QWORD PTR [rsp+0x20],rdx
   140007e31:	48 8b 44 24 20       	mov    rax,QWORD PTR [rsp+0x20]
   140007e36:	22 c3                	and    al,bl
   140007e38:	3a c3                	cmp    al,bl
   140007e3a:	75 57                	jne    0x140007e93
   140007e3c:	8b 05 c2 31 00 00    	mov    eax,DWORD PTR [rip+0x31c2]        # 0x14000b004
   140007e42:	83 c8 08             	or     eax,0x8
   140007e45:	c7 05 b1 31 00 00 03 	mov    DWORD PTR [rip+0x31b1],0x3        # 0x14000b000
   140007e4c:	00 00 00 
   140007e4f:	89 05 af 31 00 00    	mov    DWORD PTR [rip+0x31af],eax        # 0x14000b004
   140007e55:	41 f6 c3 20          	test   r11b,0x20
   140007e59:	74 38                	je     0x140007e93
   140007e5b:	83 c8 20             	or     eax,0x20
   140007e5e:	c7 05 98 31 00 00 05 	mov    DWORD PTR [rip+0x3198],0x5        # 0x14000b000
   140007e65:	00 00 00 
   140007e68:	89 05 96 31 00 00    	mov    DWORD PTR [rip+0x3196],eax        # 0x14000b004
   140007e6e:	b8 00 00 03 d0       	mov    eax,0xd0030000
   140007e73:	44 23 d8             	and    r11d,eax
   140007e76:	44 3b d8             	cmp    r11d,eax
   140007e79:	75 18                	jne    0x140007e93
   140007e7b:	48 8b 44 24 20       	mov    rax,QWORD PTR [rsp+0x20]
   140007e80:	24 e0                	and    al,0xe0
   140007e82:	3c e0                	cmp    al,0xe0
   140007e84:	75 0d                	jne    0x140007e93
   140007e86:	83 0d 77 31 00 00 40 	or     DWORD PTR [rip+0x3177],0x40        # 0x14000b004
   140007e8d:	89 1d 6d 31 00 00    	mov    DWORD PTR [rip+0x316d],ebx        # 0x14000b000
   140007e93:	48 8b 5c 24 28       	mov    rbx,QWORD PTR [rsp+0x28]
   140007e98:	33 c0                	xor    eax,eax
   140007e9a:	48 8b 74 24 30       	mov    rsi,QWORD PTR [rsp+0x30]
   140007e9f:	48 83 c4 10          	add    rsp,0x10
   140007ea3:	5f                   	pop    rdi
   140007ea4:	c3                   	ret    
   140007ea5:	cc                   	int3   
   140007ea6:	cc                   	int3   
   140007ea7:	cc                   	int3   
   140007ea8:	b8 01 00 00 00       	mov    eax,0x1
   140007ead:	c3                   	ret    
   140007eae:	cc                   	int3   
   140007eaf:	cc                   	int3   
   140007eb0:	33 c0                	xor    eax,eax
   140007eb2:	39 05 60 31 00 00    	cmp    DWORD PTR [rip+0x3160],eax        # 0x14000b018
   140007eb8:	0f 95 c0             	setne  al
   140007ebb:	c3                   	ret    
   140007ebc:	cc                   	int3   
   140007ebd:	cc                   	int3   
   140007ebe:	cc                   	int3   
   140007ebf:	cc                   	int3   
   140007ec0:	cc                   	int3   
   140007ec1:	cc                   	int3   
   140007ec2:	cc                   	int3   
   140007ec3:	cc                   	int3   
   140007ec4:	cc                   	int3   
   140007ec5:	cc                   	int3   
   140007ec6:	cc                   	int3   
   140007ec7:	cc                   	int3   
   140007ec8:	ff 25 12 12 00 00    	jmp    QWORD PTR [rip+0x1212]        # 0x1400090e0
   140007ece:	ff 25 cc 11 00 00    	jmp    QWORD PTR [rip+0x11cc]        # 0x1400090a0
   140007ed4:	ff 25 be 11 00 00    	jmp    QWORD PTR [rip+0x11be]        # 0x140009098
   140007eda:	ff 25 b0 11 00 00    	jmp    QWORD PTR [rip+0x11b0]        # 0x140009090
   140007ee0:	ff 25 ea 11 00 00    	jmp    QWORD PTR [rip+0x11ea]        # 0x1400090d0
   140007ee6:	ff 25 04 12 00 00    	jmp    QWORD PTR [rip+0x1204]        # 0x1400090f0
   140007eec:	ff 25 0e 12 00 00    	jmp    QWORD PTR [rip+0x120e]        # 0x140009100
   140007ef2:	ff 25 40 12 00 00    	jmp    QWORD PTR [rip+0x1240]        # 0x140009138
   140007ef8:	ff 25 32 12 00 00    	jmp    QWORD PTR [rip+0x1232]        # 0x140009130
   140007efe:	ff 25 f4 11 00 00    	jmp    QWORD PTR [rip+0x11f4]        # 0x1400090f8
   140007f04:	ff 25 4e 12 00 00    	jmp    QWORD PTR [rip+0x124e]        # 0x140009158
   140007f0a:	ff 25 18 12 00 00    	jmp    QWORD PTR [rip+0x1218]        # 0x140009128
   140007f10:	ff 25 0a 12 00 00    	jmp    QWORD PTR [rip+0x120a]        # 0x140009120
   140007f16:	ff 25 fc 11 00 00    	jmp    QWORD PTR [rip+0x11fc]        # 0x140009118
   140007f1c:	ff 25 26 12 00 00    	jmp    QWORD PTR [rip+0x1226]        # 0x140009148
   140007f22:	ff 25 e8 11 00 00    	jmp    QWORD PTR [rip+0x11e8]        # 0x140009110
   140007f28:	b0 01                	mov    al,0x1
   140007f2a:	c3                   	ret    
   140007f2b:	cc                   	int3   
   140007f2c:	33 c0                	xor    eax,eax
   140007f2e:	c3                   	ret    
   140007f2f:	cc                   	int3   
   140007f30:	48 83 ec 28          	sub    rsp,0x28
   140007f34:	4d 8b 41 38          	mov    r8,QWORD PTR [r9+0x38]
   140007f38:	48 8b ca             	mov    rcx,rdx
   140007f3b:	49 8b d1             	mov    rdx,r9
   140007f3e:	e8 0d 00 00 00       	call   0x140007f50
   140007f43:	b8 01 00 00 00       	mov    eax,0x1
   140007f48:	48 83 c4 28          	add    rsp,0x28
   140007f4c:	c3                   	ret    
   140007f4d:	cc                   	int3   
   140007f4e:	cc                   	int3   
   140007f4f:	cc                   	int3   
   140007f50:	40 53                	rex push rbx
   140007f52:	45 8b 18             	mov    r11d,DWORD PTR [r8]
   140007f55:	48 8b da             	mov    rbx,rdx
   140007f58:	41 83 e3 f8          	and    r11d,0xfffffff8
   140007f5c:	4c 8b c9             	mov    r9,rcx
   140007f5f:	41 f6 00 04          	test   BYTE PTR [r8],0x4
   140007f63:	4c 8b d1             	mov    r10,rcx
   140007f66:	74 13                	je     0x140007f7b
   140007f68:	41 8b 40 08          	mov    eax,DWORD PTR [r8+0x8]
   140007f6c:	4d 63 50 04          	movsxd r10,DWORD PTR [r8+0x4]
   140007f70:	f7 d8                	neg    eax
   140007f72:	4c 03 d1             	add    r10,rcx
   140007f75:	48 63 c8             	movsxd rcx,eax
   140007f78:	4c 23 d1             	and    r10,rcx
   140007f7b:	49 63 c3             	movsxd rax,r11d
   140007f7e:	4a 8b 14 10          	mov    rdx,QWORD PTR [rax+r10*1]
   140007f82:	48 8b 43 10          	mov    rax,QWORD PTR [rbx+0x10]
   140007f86:	8b 48 08             	mov    ecx,DWORD PTR [rax+0x8]
   140007f89:	48 8b 43 08          	mov    rax,QWORD PTR [rbx+0x8]
   140007f8d:	f6 44 01 03 0f       	test   BYTE PTR [rcx+rax*1+0x3],0xf
   140007f92:	74 0b                	je     0x140007f9f
   140007f94:	0f b6 44 01 03       	movzx  eax,BYTE PTR [rcx+rax*1+0x3]
   140007f99:	83 e0 f0             	and    eax,0xfffffff0
   140007f9c:	4c 03 c8             	add    r9,rax
   140007f9f:	4c 33 ca             	xor    r9,rdx
   140007fa2:	49 8b c9             	mov    rcx,r9
   140007fa5:	5b                   	pop    rbx
   140007fa6:	e9 bd f1 ff ff       	jmp    0x140007168
   140007fab:	cc                   	int3   
   140007fac:	48 8b c4             	mov    rax,rsp
   140007faf:	48 89 58 08          	mov    QWORD PTR [rax+0x8],rbx
   140007fb3:	48 89 68 10          	mov    QWORD PTR [rax+0x10],rbp
   140007fb7:	48 89 70 18          	mov    QWORD PTR [rax+0x18],rsi
   140007fbb:	48 89 78 20          	mov    QWORD PTR [rax+0x20],rdi
   140007fbf:	41 56                	push   r14
   140007fc1:	48 83 ec 20          	sub    rsp,0x20
   140007fc5:	49 8b 59 38          	mov    rbx,QWORD PTR [r9+0x38]
   140007fc9:	48 8b f2             	mov    rsi,rdx
   140007fcc:	4d 8b f0             	mov    r14,r8
   140007fcf:	48 8b e9             	mov    rbp,rcx
   140007fd2:	49 8b d1             	mov    rdx,r9
   140007fd5:	48 8b ce             	mov    rcx,rsi
   140007fd8:	49 8b f9             	mov    rdi,r9
   140007fdb:	4c 8d 43 04          	lea    r8,[rbx+0x4]
   140007fdf:	e8 6c ff ff ff       	call   0x140007f50
   140007fe4:	8b 45 04             	mov    eax,DWORD PTR [rbp+0x4]
   140007fe7:	24 66                	and    al,0x66
   140007fe9:	f6 d8                	neg    al
   140007feb:	b8 01 00 00 00       	mov    eax,0x1
   140007ff0:	45 1b c0             	sbb    r8d,r8d
   140007ff3:	41 f7 d8             	neg    r8d
   140007ff6:	44 03 c0             	add    r8d,eax
   140007ff9:	44 85 43 04          	test   DWORD PTR [rbx+0x4],r8d
   140007ffd:	74 11                	je     0x140008010
   140007fff:	4c 8b cf             	mov    r9,rdi
   140008002:	4d 8b c6             	mov    r8,r14
   140008005:	48 8b d6             	mov    rdx,rsi
   140008008:	48 8b cd             	mov    rcx,rbp
   14000800b:	e8 b8 fe ff ff       	call   0x140007ec8
   140008010:	48 8b 5c 24 30       	mov    rbx,QWORD PTR [rsp+0x30]
   140008015:	48 8b 6c 24 38       	mov    rbp,QWORD PTR [rsp+0x38]
   14000801a:	48 8b 74 24 40       	mov    rsi,QWORD PTR [rsp+0x40]
   14000801f:	48 8b 7c 24 48       	mov    rdi,QWORD PTR [rsp+0x48]
   140008024:	48 83 c4 20          	add    rsp,0x20
   140008028:	41 5e                	pop    r14
   14000802a:	c3                   	ret    
   14000802b:	ff 25 97 10 00 00    	jmp    QWORD PTR [rip+0x1097]        # 0x1400090c8
   140008031:	ff 25 81 10 00 00    	jmp    QWORD PTR [rip+0x1081]        # 0x1400090b8
   140008037:	ff 25 83 10 00 00    	jmp    QWORD PTR [rip+0x1083]        # 0x1400090c0
   14000803d:	cc                   	int3   
   14000803e:	cc                   	int3   
   14000803f:	cc                   	int3   
   140008040:	cc                   	int3   
   140008041:	cc                   	int3   
   140008042:	cc                   	int3   
   140008043:	cc                   	int3   
   140008044:	cc                   	int3   
   140008045:	cc                   	int3   
   140008046:	cc                   	int3   
   140008047:	cc                   	int3   
   140008048:	cc                   	int3   
   140008049:	cc                   	int3   
   14000804a:	cc                   	int3   
   14000804b:	cc                   	int3   
   14000804c:	cc                   	int3   
   14000804d:	cc                   	int3   
   14000804e:	66 66 0f 1f 84 00 00 	data16 nop WORD PTR [rax+rax*1+0x0]
   140008055:	00 00 00 
   140008058:	ff e0                	jmp    rax
   14000805a:	cc                   	int3   
   14000805b:	cc                   	int3   
   14000805c:	cc                   	int3   
   14000805d:	cc                   	int3   
   14000805e:	cc                   	int3   
   14000805f:	cc                   	int3   
   140008060:	cc                   	int3   
   140008061:	cc                   	int3   
   140008062:	cc                   	int3   
   140008063:	cc                   	int3   
   140008064:	cc                   	int3   
   140008065:	cc                   	int3   
   140008066:	cc                   	int3   
   140008067:	cc                   	int3   
   140008068:	cc                   	int3   
   140008069:	cc                   	int3   
   14000806a:	cc                   	int3   
   14000806b:	cc                   	int3   
   14000806c:	cc                   	int3   
   14000806d:	cc                   	int3   
   14000806e:	66 66 0f 1f 84 00 00 	data16 nop WORD PTR [rax+rax*1+0x0]
   140008075:	00 00 00 
   140008078:	ff 25 1a 11 00 00    	jmp    QWORD PTR [rip+0x111a]        # 0x140009198
   14000807e:	cc                   	int3   
   14000807f:	cc                   	int3   
   140008080:	cc                   	int3   
   140008081:	cc                   	int3   
   140008082:	cc                   	int3   
   140008083:	cc                   	int3   
   140008084:	cc                   	int3   
   140008085:	cc                   	int3   
   140008086:	cc                   	int3   
   140008087:	cc                   	int3   
   140008088:	48 8b 8a 30 00 00 00 	mov    rcx,QWORD PTR [rdx+0x30]
   14000808f:	e9 f4 ee ff ff       	jmp    0x140006f88
   140008094:	40 55                	rex push rbp
   140008096:	48 83 ec 20          	sub    rsp,0x20
   14000809a:	48 8b ea             	mov    rbp,rdx
   14000809d:	8a 4d 40             	mov    cl,BYTE PTR [rbp+0x40]
   1400080a0:	48 83 c4 20          	add    rsp,0x20
   1400080a4:	5d                   	pop    rbp
   1400080a5:	e9 32 fa ff ff       	jmp    0x140007adc
   1400080aa:	cc                   	int3   
   1400080ab:	40 55                	rex push rbp
   1400080ad:	48 83 ec 20          	sub    rsp,0x20
   1400080b1:	48 8b ea             	mov    rbp,rdx
   1400080b4:	8a 4d 20             	mov    cl,BYTE PTR [rbp+0x20]
   1400080b7:	e8 20 fa ff ff       	call   0x140007adc
   1400080bc:	90                   	nop
   1400080bd:	48 83 c4 20          	add    rsp,0x20
   1400080c1:	5d                   	pop    rbp
   1400080c2:	c3                   	ret    
   1400080c3:	cc                   	int3   
   1400080c4:	40 55                	rex push rbp
   1400080c6:	48 83 ec 20          	sub    rsp,0x20
   1400080ca:	48 8b ea             	mov    rbp,rdx
   1400080cd:	48 83 c4 20          	add    rsp,0x20
   1400080d1:	5d                   	pop    rbp
   1400080d2:	e9 81 f8 ff ff       	jmp    0x140007958
   1400080d7:	cc                   	int3   
   1400080d8:	40 55                	rex push rbp
   1400080da:	48 83 ec 30          	sub    rsp,0x30
   1400080de:	48 8b ea             	mov    rbp,rdx
   1400080e1:	48 8b 01             	mov    rax,QWORD PTR [rcx]
   1400080e4:	8b 10                	mov    edx,DWORD PTR [rax]
   1400080e6:	48 89 4c 24 28       	mov    QWORD PTR [rsp+0x28],rcx
   1400080eb:	89 54 24 20          	mov    DWORD PTR [rsp+0x20],edx
   1400080ef:	4c 8d 0d 02 f1 ff ff 	lea    r9,[rip+0xfffffffffffff102]        # 0x1400071f8
   1400080f6:	4c 8b 45 70          	mov    r8,QWORD PTR [rbp+0x70]
   1400080fa:	8b 55 68             	mov    edx,DWORD PTR [rbp+0x68]
   1400080fd:	48 8b 4d 60          	mov    rcx,QWORD PTR [rbp+0x60]
   140008101:	e8 c2 f7 ff ff       	call   0x1400078c8
   140008106:	90                   	nop
   140008107:	48 83 c4 30          	add    rsp,0x30
   14000810b:	5d                   	pop    rbp
   14000810c:	c3                   	ret    
   14000810d:	cc                   	int3   
   14000810e:	40 55                	rex push rbp
   140008110:	48 8b ea             	mov    rbp,rdx
   140008113:	48 8b 01             	mov    rax,QWORD PTR [rcx]
   140008116:	33 c9                	xor    ecx,ecx
   140008118:	81 38 05 00 00 c0    	cmp    DWORD PTR [rax],0xc0000005
   14000811e:	0f 94 c1             	sete   cl
   140008121:	8b c1                	mov    eax,ecx
   140008123:	5d                   	pop    rbp
   140008124:	c3                   	ret    
   140008125:	cc                   	int3   
	...
   1400081e6:	00 00                	add    BYTE PTR [rax],al
   1400081e8:	f8                   	clc    
   1400081e9:	51                   	push   rcx
   1400081ea:	00 00                	add    BYTE PTR [rax],al
   1400081ec:	00 00                	add    BYTE PTR [rax],al
   1400081ee:	00 00                	add    BYTE PTR [rax],al
   1400081f0:	0c 52                	or     al,0x52
   1400081f2:	00 00                	add    BYTE PTR [rax],al
   1400081f4:	00 00                	add    BYTE PTR [rax],al
   1400081f6:	00 00                	add    BYTE PTR [rax],al
   1400081f8:	20 52 00             	and    BYTE PTR [rdx+0x0],dl
   1400081fb:	00 00                	add    BYTE PTR [rax],al
   1400081fd:	00 00                	add    BYTE PTR [rax],al
   1400081ff:	00 30                	add    BYTE PTR [rax],dh
   140008201:	52                   	push   rdx
   140008202:	00 00                	add    BYTE PTR [rax],al
   140008204:	00 00                	add    BYTE PTR [rax],al
   140008206:	00 00                	add    BYTE PTR [rax],al
   140008208:	42 52                	rex.X push rdx
   14000820a:	00 00                	add    BYTE PTR [rax],al
   14000820c:	00 00                	add    BYTE PTR [rax],al
   14000820e:	00 00                	add    BYTE PTR [rax],al
   140008210:	02 55 00             	add    dl,BYTE PTR [rbp+0x0]
   140008213:	00 00                	add    BYTE PTR [rax],al
   140008215:	00 00                	add    BYTE PTR [rax],al
   140008217:	00 1c 55 00 00 00 00 	add    BYTE PTR [rdx*2+0x0],bl
   14000821e:	00 00                	add    BYTE PTR [rax],al
   140008220:	30 55 00             	xor    BYTE PTR [rbp+0x0],dl
   140008223:	00 00                	add    BYTE PTR [rax],al
   140008225:	00 00                	add    BYTE PTR [rax],al
   140008227:	00 4c 55 00          	add    BYTE PTR [rbp+rdx*2+0x0],cl
   14000822b:	00 00                	add    BYTE PTR [rax],al
   14000822d:	00 00                	add    BYTE PTR [rax],al
   14000822f:	00 6a 55             	add    BYTE PTR [rdx+0x55],ch
   140008232:	00 00                	add    BYTE PTR [rax],al
   140008234:	00 00                	add    BYTE PTR [rax],al
   140008236:	00 00                	add    BYTE PTR [rax],al
   140008238:	7e 55                	jle    0x14000828f
   14000823a:	00 00                	add    BYTE PTR [rax],al
   14000823c:	00 00                	add    BYTE PTR [rax],al
   14000823e:	00 00                	add    BYTE PTR [rax],al
   140008240:	9a                   	(bad)  
   140008241:	55                   	push   rbp
   140008242:	00 00                	add    BYTE PTR [rax],al
   140008244:	00 00                	add    BYTE PTR [rax],al
   140008246:	00 00                	add    BYTE PTR [rax],al
   140008248:	b4 55                	mov    ah,0x55
   14000824a:	00 00                	add    BYTE PTR [rax],al
   14000824c:	00 00                	add    BYTE PTR [rax],al
   14000824e:	00 00                	add    BYTE PTR [rax],al
   140008250:	ca 55 00             	retf   0x55
   140008253:	00 00                	add    BYTE PTR [rax],al
   140008255:	00 00                	add    BYTE PTR [rax],al
   140008257:	00 e0                	add    al,ah
   140008259:	55                   	push   rbp
   14000825a:	00 00                	add    BYTE PTR [rax],al
   14000825c:	00 00                	add    BYTE PTR [rax],al
   14000825e:	00 00                	add    BYTE PTR [rax],al
   140008260:	fa                   	cli    
   140008261:	55                   	push   rbp
   140008262:	00 00                	add    BYTE PTR [rax],al
   140008264:	00 00                	add    BYTE PTR [rax],al
   140008266:	00 00                	add    BYTE PTR [rax],al
   140008268:	10 56 00             	adc    BYTE PTR [rsi+0x0],dl
   14000826b:	00 00                	add    BYTE PTR [rax],al
   14000826d:	00 00                	add    BYTE PTR [rax],al
   14000826f:	00 ee                	add    dh,ch
   140008271:	54                   	push   rsp
	...
   14000827e:	00 00                	add    BYTE PTR [rax],al
   140008280:	5e                   	pop    rsi
   140008281:	52                   	push   rdx
	...
   14000828e:	00 00                	add    BYTE PTR [rax],al
   140008290:	04 53                	add    al,0x53
   140008292:	00 00                	add    BYTE PTR [rax],al
   140008294:	00 00                	add    BYTE PTR [rax],al
   140008296:	00 00                	add    BYTE PTR [rax],al
   140008298:	ee                   	out    dx,al
   140008299:	52                   	push   rdx
   14000829a:	00 00                	add    BYTE PTR [rax],al
   14000829c:	00 00                	add    BYTE PTR [rax],al
   14000829e:	00 00                	add    BYTE PTR [rax],al
   1400082a0:	d6                   	(bad)  
   1400082a1:	52                   	push   rdx
   1400082a2:	00 00                	add    BYTE PTR [rax],al
   1400082a4:	00 00                	add    BYTE PTR [rax],al
   1400082a6:	00 00                	add    BYTE PTR [rax],al
   1400082a8:	be 52 00 00 00       	mov    esi,0x52
   1400082ad:	00 00                	add    BYTE PTR [rax],al
   1400082af:	00 a4 52 00 00 00 00 	add    BYTE PTR [rdx+rdx*2+0x0],ah
   1400082b6:	00 00                	add    BYTE PTR [rax],al
   1400082b8:	2e 56                	cs push rsi
   1400082ba:	00 00                	add    BYTE PTR [rax],al
   1400082bc:	00 00                	add    BYTE PTR [rax],al
   1400082be:	00 00                	add    BYTE PTR [rax],al
   1400082c0:	38 56 00             	cmp    BYTE PTR [rsi+0x0],dl
   1400082c3:	00 00                	add    BYTE PTR [rax],al
   1400082c5:	00 00                	add    BYTE PTR [rax],al
   1400082c7:	00 24 56             	add    BYTE PTR [rsi+rdx*2],ah
   1400082ca:	00 00                	add    BYTE PTR [rax],al
   1400082cc:	00 00                	add    BYTE PTR [rax],al
   1400082ce:	00 00                	add    BYTE PTR [rax],al
   1400082d0:	24 53                	and    al,0x53
	...
   1400082de:	00 00                	add    BYTE PTR [rax],al
   1400082e0:	8e 52 00             	mov    ss,WORD PTR [rdx+0x0]
	...
   1400082ef:	00 c8                	add    al,cl
   1400082f1:	53                   	push   rbx
   1400082f2:	00 00                	add    BYTE PTR [rax],al
   1400082f4:	00 00                	add    BYTE PTR [rax],al
   1400082f6:	00 00                	add    BYTE PTR [rax],al
   1400082f8:	f8                   	clc    
   1400082f9:	53                   	push   rbx
   1400082fa:	00 00                	add    BYTE PTR [rax],al
   1400082fc:	00 00                	add    BYTE PTR [rax],al
   1400082fe:	00 00                	add    BYTE PTR [rax],al
   140008300:	d4                   	(bad)  
   140008301:	53                   	push   rbx
	...
   14000830e:	00 00                	add    BYTE PTR [rax],al
   140008310:	82                   	(bad)  
   140008311:	54                   	push   rsp
   140008312:	00 00                	add    BYTE PTR [rax],al
   140008314:	00 00                	add    BYTE PTR [rax],al
   140008316:	00 00                	add    BYTE PTR [rax],al
   140008318:	4e 54                	rex.WRX push rsp
   14000831a:	00 00                	add    BYTE PTR [rax],al
   14000831c:	00 00                	add    BYTE PTR [rax],al
   14000831e:	00 00                	add    BYTE PTR [rax],al
   140008320:	2c 54                	sub    al,0x54
   140008322:	00 00                	add    BYTE PTR [rax],al
   140008324:	00 00                	add    BYTE PTR [rax],al
   140008326:	00 00                	add    BYTE PTR [rax],al
   140008328:	12 54 00 00          	adc    dl,BYTE PTR [rax+rax*1+0x0]
   14000832c:	00 00                	add    BYTE PTR [rax],al
   14000832e:	00 00                	add    BYTE PTR [rax],al
   140008330:	ea                   	(bad)  
   140008331:	53                   	push   rbx
   140008332:	00 00                	add    BYTE PTR [rax],al
   140008334:	00 00                	add    BYTE PTR [rax],al
   140008336:	00 00                	add    BYTE PTR [rax],al
   140008338:	de 53 00             	ficom  WORD PTR [rbx+0x0]
   14000833b:	00 00                	add    BYTE PTR [rax],al
   14000833d:	00 00                	add    BYTE PTR [rax],al
   14000833f:	00 a2 53 00 00 00    	add    BYTE PTR [rdx+0x53],ah
   140008345:	00 00                	add    BYTE PTR [rax],al
   140008347:	00 6a 54             	add    BYTE PTR [rdx+0x54],ch
   14000834a:	00 00                	add    BYTE PTR [rax],al
   14000834c:	00 00                	add    BYTE PTR [rax],al
   14000834e:	00 00                	add    BYTE PTR [rax],al
   140008350:	54                   	push   rsp
   140008351:	53                   	push   rbx
   140008352:	00 00                	add    BYTE PTR [rax],al
   140008354:	00 00                	add    BYTE PTR [rax],al
   140008356:	00 00                	add    BYTE PTR [rax],al
   140008358:	00 54 00 00          	add    BYTE PTR [rax+rax*1+0x0],dl
	...
   140008368:	88 53 00             	mov    BYTE PTR [rbx+0x0],dl
   14000836b:	00 00                	add    BYTE PTR [rax],al
   14000836d:	00 00                	add    BYTE PTR [rax],al
   14000836f:	00 6e 53             	add    BYTE PTR [rsi+0x53],ch
   140008372:	00 00                	add    BYTE PTR [rax],al
   140008374:	00 00                	add    BYTE PTR [rax],al
   140008376:	00 00                	add    BYTE PTR [rax],al
   140008378:	5c                   	pop    rsp
   140008379:	53                   	push   rbx
	...
   140008386:	00 00                	add    BYTE PTR [rax],al
   140008388:	18 2d 00 80 01 00    	sbb    BYTE PTR [rip+0x18000],ch        # 0x14002038e
   14000838e:	00 00                	add    BYTE PTR [rax],al
   140008390:	18 2d 00 80 01 00    	sbb    BYTE PTR [rip+0x18000],ch        # 0x140020396
   140008396:	00 00                	add    BYTE PTR [rax],al
   140008398:	70 30                	jo     0x1400083ca
   14000839a:	00 80 01 00 00 00    	add    BYTE PTR [rax+0x1],al
   1400083a0:	90                   	nop
   1400083a1:	30 00                	xor    BYTE PTR [rax],al
   1400083a3:	80 01 00             	add    BYTE PTR [rcx],0x0
   1400083a6:	00 00                	add    BYTE PTR [rax],al
   1400083a8:	90                   	nop
   1400083a9:	30 00                	xor    BYTE PTR [rax],al
   1400083ab:	80 01 00             	add    BYTE PTR [rcx],0x0
	...
   1400083f6:	00 00                	add    BYTE PTR [rax],al
   1400083f8:	00 47 00             	add    BYTE PTR [rdi+0x0],al
   1400083fb:	80 01 00             	add    BYTE PTR [rcx],0x0
   1400083fe:	00 00                	add    BYTE PTR [rax],al
   140008400:	e4 21                	in     al,0x21
   140008402:	00 80 01 00 00 00    	add    BYTE PTR [rax+0x1],al
	...
   140008410:	00 61 00             	add    BYTE PTR [rcx+0x0],ah
   140008413:	80 01 00             	add    BYTE PTR [rcx],0x0
   140008416:	00 00                	add    BYTE PTR [rax],al
   140008418:	a0 61 00 80 01 00 00 	movabs al,ds:0x7800000001800061
   14000841f:	00 78 
   140008421:	47 00 80 01 00 00 00 	rex.RXB add BYTE PTR [r8+0x1],r8b
   140008428:	a0 17 00 80 01 00 00 	movabs al,ds:0x8000000001800017
   14000842f:	00 80 
   140008431:	17                   	(bad)  
   140008432:	00 80 01 00 00 00    	add    BYTE PTR [rax+0x1],al
   140008438:	50                   	push   rax
   140008439:	48 00 80 01 00 00 00 	rex.W add BYTE PTR [rax+0x1],al
   140008440:	a0 17 00 80 01 00 00 	movabs al,ds:0x8000000001800017
   140008447:	00 80 
   140008449:	17                   	(bad)  
   14000844a:	00 80 01 00 00 00    	add    BYTE PTR [rax+0x1],al
   140008450:	62 61 64 20 61       	(bad)
   140008455:	6c                   	ins    BYTE PTR es:[rdi],dx
   140008456:	6c                   	ins    BYTE PTR es:[rdi],dx
   140008457:	6f                   	outs   dx,DWORD PTR ds:[rsi]
   140008458:	63 61 74             	movsxd esp,DWORD PTR [rcx+0x74]
   14000845b:	69 6f 6e 00 00 a8 48 	imul   ebp,DWORD PTR [rdi+0x6e],0x48a80000
   140008462:	00 80 01 00 00 00    	add    BYTE PTR [rax+0x1],al
   140008468:	a0 17 00 80 01 00 00 	movabs al,ds:0x8000000001800017
   14000846f:	00 80 
   140008471:	17                   	(bad)  
   140008472:	00 80 01 00 00 00    	add    BYTE PTR [rax+0x1],al
   140008478:	ff                   	(bad)  
   140008479:	ff                   	(bad)  
   14000847a:	ff                   	(bad)  
   14000847b:	ff                   	(bad)  
   14000847c:	ff                   	(bad)  
   14000847d:	ff                   	(bad)  
   14000847e:	ff                   	(bad)  
   14000847f:	ff                   	(bad)  
   140008480:	ff                   	(bad)  
   140008481:	ff                   	(bad)  
   140008482:	ff                   	(bad)  
   140008483:	ff                   	(bad)  
   140008484:	ff                   	(bad)  
   140008485:	ff                   	(bad)  
   140008486:	ff                   	(bad)  
   140008487:	ff 55 6e             	call   QWORD PTR [rbp+0x6e]
   14000848a:	6b 6e 6f 77          	imul   ebp,DWORD PTR [rsi+0x6f],0x77
   14000848e:	6e                   	outs   dx,BYTE PTR ds:[rsi]
   14000848f:	20 65 78             	and    BYTE PTR [rbp+0x78],ah
   140008492:	63 65 70             	movsxd esp,DWORD PTR [rbp+0x70]
   140008495:	74 69                	je     0x140008500
   140008497:	6f                   	outs   dx,DWORD PTR ds:[rsi]
   140008498:	6e                   	outs   dx,BYTE PTR ds:[rsi]
   140008499:	00 00                	add    BYTE PTR [rax],al
   14000849b:	00 00                	add    BYTE PTR [rax],al
   14000849d:	00 00                	add    BYTE PTR [rax],al
   14000849f:	00 62 61             	add    BYTE PTR [rdx+0x61],ah
   1400084a2:	64 20 61 72          	and    BYTE PTR fs:[rcx+0x72],ah
   1400084a6:	72 61                	jb     0x140008509
   1400084a8:	79 20                	jns    0x1400084ca
   1400084aa:	6e                   	outs   dx,BYTE PTR ds:[rsi]
   1400084ab:	65 77 20             	gs ja  0x1400084ce
   1400084ae:	6c                   	ins    BYTE PTR es:[rdi],dx
   1400084af:	65 6e                	outs   dx,BYTE PTR gs:[rsi]
   1400084b1:	67 74 68             	addr32 je 0x14000851c
   1400084b4:	00 00                	add    BYTE PTR [rax],al
   1400084b6:	00 00                	add    BYTE PTR [rax],al
   1400084b8:	73 74                	jae    0x14000852e
   1400084ba:	72 69                	jb     0x140008525
   1400084bc:	6e                   	outs   dx,BYTE PTR ds:[rsi]
   1400084bd:	67 20 74 6f 6f       	and    BYTE PTR [edi+ebp*2+0x6f],dh
   1400084c2:	20 6c 6f 6e          	and    BYTE PTR [rdi+rbp*2+0x6e],ch
   1400084c6:	67 00 59 75          	add    BYTE PTR [ecx+0x75],bl
   1400084ca:	72 69                	jb     0x140008535
   1400084cc:	69 69 00 00 6b 65 72 	imul   ebp,DWORD PTR [rcx+0x0],0x72656b00
   1400084d3:	6e                   	outs   dx,BYTE PTR ds:[rsi]
   1400084d4:	65 6c                	gs ins BYTE PTR es:[rdi],dx
   1400084d6:	33 32                	xor    esi,DWORD PTR [rdx]
   1400084d8:	2e 64 6c             	cs fs ins BYTE PTR es:[rdi],dx
   1400084db:	6c                   	ins    BYTE PTR es:[rdi],dx
   1400084dc:	00 00                	add    BYTE PTR [rax],al
   1400084de:	00 00                	add    BYTE PTR [rax],al
   1400084e0:	6e                   	outs   dx,BYTE PTR ds:[rsi]
   1400084e1:	74 64                	je     0x140008547
   1400084e3:	6c                   	ins    BYTE PTR es:[rdi],dx
   1400084e4:	6c                   	ins    BYTE PTR es:[rdi],dx
   1400084e5:	2e 64 6c             	cs fs ins BYTE PTR es:[rdi],dx
   1400084e8:	6c                   	ins    BYTE PTR es:[rdi],dx
   1400084e9:	00 00                	add    BYTE PTR [rax],al
   1400084eb:	00 00                	add    BYTE PTR [rax],al
   1400084ed:	00 00                	add    BYTE PTR [rax],al
   1400084ef:	00 4e 74             	add    BYTE PTR [rsi+0x74],cl
   1400084f2:	51                   	push   rcx
   1400084f3:	75 65                	jne    0x14000855a
   1400084f5:	72 79                	jb     0x140008570
   1400084f7:	49 6e                	rex.WB outs dx,BYTE PTR ds:[rsi]
   1400084f9:	66 6f                	outs   dx,WORD PTR ds:[rsi]
   1400084fb:	72 6d                	jb     0x14000856a
   1400084fd:	61                   	(bad)  
   1400084fe:	74 69                	je     0x140008569
   140008500:	6f                   	outs   dx,DWORD PTR ds:[rsi]
   140008501:	6e                   	outs   dx,BYTE PTR ds:[rsi]
   140008502:	50                   	push   rax
   140008503:	72 6f                	jb     0x140008574
   140008505:	63 65 73             	movsxd esp,DWORD PTR [rbp+0x73]
   140008508:	73 00                	jae    0x14000850a
   14000850a:	00 00                	add    BYTE PTR [rax],al
   14000850c:	25 36 34 73 00       	and    eax,0x733436
   140008511:	00 00                	add    BYTE PTR [rax],al
   140008513:	00 00                	add    BYTE PTR [rax],al
   140008515:	00 00                	add    BYTE PTR [rax],al
   140008517:	00 63 7c             	add    BYTE PTR [rbx+0x7c],ah
   14000851a:	77 7b                	ja     0x140008597
   14000851c:	f2 6b 6f c5 30       	repnz imul ebp,DWORD PTR [rdi-0x3b],0x30
   140008521:	01 67 2b             	add    DWORD PTR [rdi+0x2b],esp
   140008524:	fe                   	(bad)  
   140008525:	d7                   	xlat   BYTE PTR ds:[rbx]
   140008526:	ab                   	stos   DWORD PTR es:[rdi],eax
   140008527:	76 ca                	jbe    0x1400084f3
   140008529:	82                   	(bad)  
   14000852a:	c9                   	leave  
   14000852b:	7d fa                	jge    0x140008527
   14000852d:	59                   	pop    rcx
   14000852e:	47                   	rex.RXB
   14000852f:	f0 ad                	lock lods eax,DWORD PTR ds:[rsi]
   140008531:	d4                   	(bad)  
   140008532:	a2 af 9c a4 72 c0 b7 	movabs ds:0x93fdb7c072a49caf,al
   140008539:	fd 93 
   14000853b:	26 36 3f             	es ss (bad) 
   14000853e:	f7 cc 34 a5 e5 f1    	test   esp,0xf1e5a534
   140008544:	71 d8                	jno    0x14000851e
   140008546:	31 15 04 c7 23 c3    	xor    DWORD PTR [rip+0xffffffffc323c704],edx        # 0x103244c50
   14000854c:	18 96 05 9a 07 12    	sbb    BYTE PTR [rsi+0x12079a05],dl
   140008552:	80 e2 eb             	and    dl,0xeb
   140008555:	27                   	(bad)  
   140008556:	b2 75                	mov    dl,0x75
   140008558:	09 83 2c 1a 1b 6e    	or     DWORD PTR [rbx+0x6e1b1a2c],eax
   14000855e:	5a                   	pop    rdx
   14000855f:	a0 52 3b d6 b3 29 e3 	movabs al,ds:0x842fe329b3d63b52
   140008566:	2f 84 
   140008568:	53                   	push   rbx
   140008569:	d1 00                	rol    DWORD PTR [rax],1
   14000856b:	ed                   	in     eax,dx
   14000856c:	20 fc                	and    ah,bh
   14000856e:	b1 5b                	mov    cl,0x5b
   140008570:	6a cb                	push   0xffffffffffffffcb
   140008572:	be 39 4a 4c 58       	mov    esi,0x584c4a39
   140008577:	cf                   	iret   
   140008578:	d0 ef                	shr    bh,1
   14000857a:	aa                   	stos   BYTE PTR es:[rdi],al
   14000857b:	fb                   	sti    
   14000857c:	43                   	rex.XB
   14000857d:	4d 33 85 45 f9 02 7f 	xor    r8,QWORD PTR [r13+0x7f02f945]
   140008584:	50                   	push   rax
   140008585:	3c 9f                	cmp    al,0x9f
   140008587:	a8 51                	test   al,0x51
   140008589:	a3 40 8f 92 9d 38 f5 	movabs ds:0xb6bcf5389d928f40,eax
   140008590:	bc b6 
   140008592:	da 21                	fisub  DWORD PTR [rcx]
   140008594:	10 ff                	adc    bh,bh
   140008596:	f3 d2 cd             	repz ror ch,cl
   140008599:	0c 13                	or     al,0x13
   14000859b:	ec                   	in     al,dx
   14000859c:	5f                   	pop    rdi
   14000859d:	97                   	xchg   edi,eax
   14000859e:	44 17                	rex.R (bad) 
   1400085a0:	c4                   	(bad)  
   1400085a1:	a7                   	cmps   DWORD PTR ds:[rsi],DWORD PTR es:[rdi]
   1400085a2:	7e 3d                	jle    0x1400085e1
   1400085a4:	64 5d                	fs pop rbp
   1400085a6:	19 73 60             	sbb    DWORD PTR [rbx+0x60],esi
   1400085a9:	81 4f dc 22 2a 90 88 	or     DWORD PTR [rdi-0x24],0x88902a22
   1400085b0:	46 ee                	rex.RX out dx,al
   1400085b2:	b8 14 de 5e 0b       	mov    eax,0xb5ede14
   1400085b7:	db e0                	fneni(8087 only) 
   1400085b9:	32 3a                	xor    bh,BYTE PTR [rdx]
   1400085bb:	0a 49 06             	or     cl,BYTE PTR [rcx+0x6]
   1400085be:	24 5c                	and    al,0x5c
   1400085c0:	c2 d3 ac             	ret    0xacd3
   1400085c3:	62 91 95 e4 79       	(bad)
   1400085c8:	e7 c8                	out    0xc8,eax
   1400085ca:	37                   	(bad)  
   1400085cb:	6d                   	ins    DWORD PTR es:[rdi],dx
   1400085cc:	8d                   	(bad)  
   1400085cd:	d5                   	(bad)  
   1400085ce:	4e a9 6c 56 f4 ea    	rex.WRX test rax,0xffffffffeaf4566c
   1400085d4:	65 7a ae             	gs jp  0x140008585
   1400085d7:	08 ba 78 25 2e 1c    	or     BYTE PTR [rdx+0x1c2e2578],bh
   1400085dd:	a6                   	cmps   BYTE PTR ds:[rsi],BYTE PTR es:[rdi]
   1400085de:	b4 c6                	mov    ah,0xc6
   1400085e0:	e8 dd 74 1f 4b       	call   0x18b1ffac2
   1400085e5:	bd 8b 8a 70 3e       	mov    ebp,0x3e708a8b
   1400085ea:	b5 66                	mov    ch,0x66
   1400085ec:	48 03 f6             	add    rsi,rsi
   1400085ef:	0e                   	(bad)  
   1400085f0:	61                   	(bad)  
   1400085f1:	35 57 b9 86 c1       	xor    eax,0xc186b957
   1400085f6:	1d 9e e1 f8 98       	sbb    eax,0x98f8e19e
   1400085fb:	11 69 d9             	adc    DWORD PTR [rcx-0x27],ebp
   1400085fe:	8e 94 9b 1e 87 e9 ce 	mov    ss,WORD PTR [rbx+rbx*4-0x311678e2]
   140008605:	55                   	push   rbp
   140008606:	28 df                	sub    bh,bl
   140008608:	8c a1 89 0d bf e6    	mov    WORD PTR [rcx-0x1940f277],fs
   14000860e:	42 68 41 99 2d 0f    	rex.X push 0xf2d9941
   140008614:	b0 54                	mov    al,0x54
   140008616:	bb 16 52 09 6a       	mov    ebx,0x6a095216
   14000861b:	d5                   	(bad)  
   14000861c:	30 36                	xor    BYTE PTR [rsi],dh
   14000861e:	a5                   	movs   DWORD PTR es:[rdi],DWORD PTR ds:[rsi]
   14000861f:	38 bf 40 a3 9e 81    	cmp    BYTE PTR [rdi-0x7e615cc0],bh
   140008625:	f3 d7                	repz xlat BYTE PTR ds:[rbx]
   140008627:	fb                   	sti    
   140008628:	7c e3                	jl     0x14000860d
   14000862a:	39 82 9b 2f ff 87    	cmp    DWORD PTR [rdx-0x7800d065],eax
   140008630:	34 8e                	xor    al,0x8e
   140008632:	43                   	rex.XB
   140008633:	44 c4                	rex.R (bad) 
   140008635:	de e9                	fsubp  st(1),st
   140008637:	cb                   	retf   
   140008638:	54                   	push   rsp
   140008639:	7b 94                	jnp    0x1400085cf
   14000863b:	32 a6 c2 23 3d ee    	xor    ah,BYTE PTR [rsi-0x11c2dc3e]
   140008641:	4c 95                	rex.WR xchg rbp,rax
   140008643:	0b 42 fa             	or     eax,DWORD PTR [rdx-0x6]
   140008646:	c3                   	ret    
   140008647:	4e 08 2e             	rex.WRX or BYTE PTR [rsi],r13b
   14000864a:	a1 66 28 d9 24 b2 76 	movabs eax,ds:0xa25b76b224d92866
   140008651:	5b a2 
   140008653:	49 6d                	rex.WB ins DWORD PTR es:[rdi],dx
   140008655:	8b d1                	mov    edx,ecx
   140008657:	25 72 f8 f6 64       	and    eax,0x64f6f872
   14000865c:	86 68 98             	xchg   BYTE PTR [rax-0x68],ch
   14000865f:	16                   	(bad)  
   140008660:	d4                   	(bad)  
   140008661:	a4                   	movs   BYTE PTR es:[rdi],BYTE PTR ds:[rsi]
   140008662:	5c                   	pop    rsp
   140008663:	cc                   	int3   
   140008664:	5d                   	pop    rbp
   140008665:	65 b6 92             	gs mov dh,0x92
   140008668:	6c                   	ins    BYTE PTR es:[rdi],dx
   140008669:	70 48                	jo     0x1400086b3
   14000866b:	50                   	push   rax
   14000866c:	fd                   	std    
   14000866d:	ed                   	in     eax,dx
   14000866e:	b9 da 5e 15 46       	mov    ecx,0x46155eda
   140008673:	57                   	push   rdi
   140008674:	a7                   	cmps   DWORD PTR ds:[rsi],DWORD PTR es:[rdi]
   140008675:	8d 9d 84 90 d8 ab    	lea    ebx,[rbp-0x54276f7c]
   14000867b:	00 8c bc d3 0a f7 e4 	add    BYTE PTR [rsp+rdi*4-0x1b08f52d],cl
   140008682:	58                   	pop    rax
   140008683:	05 b8 b3 45 06       	add    eax,0x645b3b8
   140008688:	d0 2c 1e             	shr    BYTE PTR [rsi+rbx*1],1
   14000868b:	8f ca 3f 0f          	(bad)
   14000868f:	02 c1                	add    al,cl
   140008691:	af                   	scas   eax,DWORD PTR es:[rdi]
   140008692:	bd 03 01 13 8a       	mov    ebp,0x8a130103
   140008697:	6b 3a 91             	imul   edi,DWORD PTR [rdx],0xffffff91
   14000869a:	11 41 4f             	adc    DWORD PTR [rcx+0x4f],eax
   14000869d:	67 dc ea             	addr32 fsub st(2),st
   1400086a0:	97                   	xchg   edi,eax
   1400086a1:	f2 cf                	repnz iret 
   1400086a3:	ce                   	(bad)  
   1400086a4:	f0 b4 e6             	lock mov ah,0xe6
   1400086a7:	73 96                	jae    0x14000863f
   1400086a9:	ac                   	lods   al,BYTE PTR ds:[rsi]
   1400086aa:	74 22                	je     0x1400086ce
   1400086ac:	e7 ad                	out    0xad,eax
   1400086ae:	35 85 e2 f9 37       	xor    eax,0x37f9e285
   1400086b3:	e8 1c 75 df 6e       	call   0x1aedffbd4
   1400086b8:	47 f1                	rex.RXB int1 
   1400086ba:	1a 71 1d             	sbb    dh,BYTE PTR [rcx+0x1d]
   1400086bd:	29 c5                	sub    ebp,eax
   1400086bf:	89 6f b7             	mov    DWORD PTR [rdi-0x49],ebp
   1400086c2:	62                   	(bad)  
   1400086c3:	0e                   	(bad)  
   1400086c4:	aa                   	stos   BYTE PTR es:[rdi],al
   1400086c5:	18 be 1b fc 56 3e    	sbb    BYTE PTR [rsi+0x3e56fc1b],bh
   1400086cb:	4b c6                	rex.WXB (bad) 
   1400086cd:	d2 79 20             	sar    BYTE PTR [rcx+0x20],cl
   1400086d0:	9a                   	(bad)  
   1400086d1:	db c0                	fcmovnb st,st(0)
   1400086d3:	fe                   	(bad)  
   1400086d4:	78 cd                	js     0x1400086a3
   1400086d6:	5a                   	pop    rdx
   1400086d7:	f4                   	hlt    
   1400086d8:	1f                   	(bad)  
   1400086d9:	dd a8 33 88 07 c7    	(bad)  [rax-0x38f877cd]
   1400086df:	31 b1 12 10 59 27    	xor    DWORD PTR [rcx+0x27591012],esi
   1400086e5:	80 ec 5f             	sub    ah,0x5f
   1400086e8:	60                   	(bad)  
   1400086e9:	51                   	push   rcx
   1400086ea:	7f a9                	jg     0x140008695
   1400086ec:	19 b5 4a 0d 2d e5    	sbb    DWORD PTR [rbp-0x1ad2f2b6],esi
   1400086f2:	7a 9f                	jp     0x140008693
   1400086f4:	93                   	xchg   ebx,eax
   1400086f5:	c9                   	leave  
   1400086f6:	9c                   	pushf  
   1400086f7:	ef                   	out    dx,eax
   1400086f8:	a0 e0 3b 4d ae 2a f5 	movabs al,ds:0xc8b0f52aae4d3be0
   1400086ff:	b0 c8 
   140008701:	eb bb                	jmp    0x1400086be
   140008703:	3c 83                	cmp    al,0x83
   140008705:	53                   	push   rbx
   140008706:	99                   	cdq    
   140008707:	61                   	(bad)  
   140008708:	17                   	(bad)  
   140008709:	2b 04 7e             	sub    eax,DWORD PTR [rsi+rdi*2]
   14000870c:	ba 77 d6 26 e1       	mov    edx,0xe126d677
   140008711:	69 14 63 55 21 0c 7d 	imul   edx,DWORD PTR [rbx+riz*2],0x7d0c2155
   140008718:	8d 01                	lea    eax,[rcx]
   14000871a:	02 04 08             	add    al,BYTE PTR [rax+rcx*1]
   14000871d:	10 20                	adc    BYTE PTR [rax],ah
   14000871f:	40 80 1b 36          	rex sbb BYTE PTR [rbx],0x36
   140008723:	00 00                	add    BYTE PTR [rax],al
   140008725:	00 00                	add    BYTE PTR [rax],al
   140008727:	00 9d ce 55 62 00    	add    BYTE PTR [rbp+0x6255ce],bl
   14000872d:	00 00                	add    BYTE PTR [rax],al
   14000872f:	00 02                	add    BYTE PTR [rdx],al
   140008731:	00 00                	add    BYTE PTR [rax],al
   140008733:	00 61 00             	add    BYTE PTR [rcx+0x0],ah
   140008736:	00 00                	add    BYTE PTR [rax],al
   140008738:	0c 49                	or     al,0x49
   14000873a:	00 00                	add    BYTE PTR [rax],al
   14000873c:	0c 2f                	or     al,0x2f
   14000873e:	00 00                	add    BYTE PTR [rax],al
   140008740:	00 00                	add    BYTE PTR [rax],al
   140008742:	00 00                	add    BYTE PTR [rax],al
   140008744:	9d                   	popf   
   140008745:	ce                   	(bad)  
   140008746:	55                   	push   rbp
   140008747:	62                   	(bad)  
   140008748:	00 00                	add    BYTE PTR [rax],al
   14000874a:	00 00                	add    BYTE PTR [rax],al
   14000874c:	0c 00                	or     al,0x0
   14000874e:	00 00                	add    BYTE PTR [rax],al
   140008750:	14 00                	adc    al,0x0
   140008752:	00 00                	add    BYTE PTR [rax],al
   140008754:	70 49                	jo     0x14000879f
   140008756:	00 00                	add    BYTE PTR [rax],al
   140008758:	70 2f                	jo     0x140008789
   14000875a:	00 00                	add    BYTE PTR [rax],al
   14000875c:	00 00                	add    BYTE PTR [rax],al
   14000875e:	00 00                	add    BYTE PTR [rax],al
   140008760:	9d                   	popf   
   140008761:	ce                   	(bad)  
   140008762:	55                   	push   rbp
   140008763:	62                   	(bad)  
   140008764:	00 00                	add    BYTE PTR [rax],al
   140008766:	00 00                	add    BYTE PTR [rax],al
   140008768:	0d 00 00 00 94       	or     eax,0x94000000
   14000876d:	02 00                	add    al,BYTE PTR [rax]
   14000876f:	00 84 49 00 00 84 2f 	add    BYTE PTR [rcx+rcx*2+0x2f840000],al
   140008776:	00 00                	add    BYTE PTR [rax],al
   140008778:	00 00                	add    BYTE PTR [rax],al
   14000877a:	00 00                	add    BYTE PTR [rax],al
   14000877c:	9d                   	popf   
   14000877d:	ce                   	(bad)  
   14000877e:	55                   	push   rbp
   14000877f:	62                   	(bad)  
   140008780:	00 00                	add    BYTE PTR [rax],al
   140008782:	00 00                	add    BYTE PTR [rax],al
   140008784:	0e                   	(bad)  
	...
   140008795:	00 00                	add    BYTE PTR [rax],al
   140008797:	00 38                	add    BYTE PTR [rax],bh
   140008799:	01 00                	add    DWORD PTR [rax],eax
	...
   1400087ef:	00 08                	add    BYTE PTR [rax],cl
   1400087f1:	60                   	(bad)  
   1400087f2:	00 80 01 00 00 00    	add    BYTE PTR [rax+0x1],al
	...
   140008808:	a0 41 00 80 01 00 00 	movabs al,ds:0xb000000001800041
   14000880f:	00 b0 
   140008811:	41 00 80 01 00 00 00 	add    BYTE PTR [r8+0x1],al
	...
   140008828:	00 01                	add    BYTE PTR [rcx],al
	...
   140008896:	00 00                	add    BYTE PTR [rax],al
   140008898:	f4                   	hlt    
   140008899:	48 00 80 01 00 00 00 	rex.W add BYTE PTR [rax+0x1],al
	...
   1400088b0:	a8 41                	test   al,0x41
   1400088b2:	00 80 01 00 00 00    	add    BYTE PTR [rax+0x1],al
   1400088b8:	b8 41 00 80 01       	mov    eax,0x1800041
   1400088bd:	00 00                	add    BYTE PTR [rax],al
   1400088bf:	00 c0                	add    al,al
   1400088c1:	41 00 80 01 00 00 00 	add    BYTE PTR [r8+0x1],al
   1400088c8:	d0 66 00             	shl    BYTE PTR [rsi+0x0],1
   1400088cb:	80 01 00             	add    BYTE PTR [rcx],0x0
	...
   1400088e6:	00 00                	add    BYTE PTR [rax],al
   1400088e8:	01 00                	add    DWORD PTR [rax],eax
	...
   1400088f2:	00 00                	add    BYTE PTR [rax],al
   1400088f4:	d0 60 00             	shl    BYTE PTR [rax+0x0],1
   1400088f7:	00 28                	add    BYTE PTR [rax],ch
   1400088f9:	47 00 00             	rex.RXB add BYTE PTR [r8],r8b
   1400088fc:	00 47 00             	add    BYTE PTR [rdi+0x0],al
	...
   140008917:	00 01                	add    BYTE PTR [rcx],al
   140008919:	00 00                	add    BYTE PTR [rax],al
   14000891b:	00 40 47             	add    BYTE PTR [rax+0x47],al
	...
   140008926:	00 00                	add    BYTE PTR [rax],al
   140008928:	50                   	push   rax
   140008929:	47 00 00             	rex.RXB add BYTE PTR [r8],r8b
	...
   140008938:	d0 60 00             	shl    BYTE PTR [rax+0x0],1
	...
   140008943:	00 ff                	add    bh,bh
   140008945:	ff                   	(bad)  
   140008946:	ff                   	(bad)  
   140008947:	ff 00                	inc    DWORD PTR [rax]
   140008949:	00 00                	add    BYTE PTR [rax],al
   14000894b:	00 40 00             	add    BYTE PTR [rax+0x0],al
   14000894e:	00 00                	add    BYTE PTR [rax],al
   140008950:	28 47 00             	sub    BYTE PTR [rdi+0x0],al
	...
   14000895f:	00 01                	add    BYTE PTR [rcx],al
	...
   140008969:	00 00                	add    BYTE PTR [rax],al
   14000896b:	00 78 60             	add    BYTE PTR [rax+0x60],bh
   14000896e:	00 00                	add    BYTE PTR [rax],al
   140008970:	38 48 00             	cmp    BYTE PTR [rax+0x0],cl
   140008973:	00 78 47             	add    BYTE PTR [rax+0x47],bh
	...
   140008986:	00 00                	add    BYTE PTR [rax],al
   140008988:	d0 48 00             	ror    BYTE PTR [rax+0x0],1
   14000898b:	00 00                	add    BYTE PTR [rax],al
   14000898d:	48 00 00             	rex.W add BYTE PTR [rax],al
   140008990:	d8 47 00             	fadd   DWORD PTR [rdi+0x0]
	...
   1400089a7:	00 00                	add    BYTE PTR [rax],al
   1400089a9:	48 00 00             	rex.W add BYTE PTR [rax],al
   1400089ac:	d8 47 00             	fadd   DWORD PTR [rdi+0x0]
	...
   1400089bf:	00 78 60             	add    BYTE PTR [rax+0x60],bh
	...
   1400089ca:	00 00                	add    BYTE PTR [rax],al
   1400089cc:	ff                   	(bad)  
   1400089cd:	ff                   	(bad)  
   1400089ce:	ff                   	(bad)  
   1400089cf:	ff 00                	inc    DWORD PTR [rax]
   1400089d1:	00 00                	add    BYTE PTR [rax],al
   1400089d3:	00 40 00             	add    BYTE PTR [rax+0x0],al
   1400089d6:	00 00                	add    BYTE PTR [rax],al
   1400089d8:	38 48 00             	cmp    BYTE PTR [rax+0x0],cl
	...
   1400089e7:	00 50 60             	add    BYTE PTR [rax+0x60],dl
   1400089ea:	00 00                	add    BYTE PTR [rax],al
   1400089ec:	01 00                	add    DWORD PTR [rax],eax
   1400089ee:	00 00                	add    BYTE PTR [rax],al
   1400089f0:	00 00                	add    BYTE PTR [rax],al
   1400089f2:	00 00                	add    BYTE PTR [rax],al
   1400089f4:	ff                   	(bad)  
   1400089f5:	ff                   	(bad)  
   1400089f6:	ff                   	(bad)  
   1400089f7:	ff 00                	inc    DWORD PTR [rax]
   1400089f9:	00 00                	add    BYTE PTR [rax],al
   1400089fb:	00 40 00             	add    BYTE PTR [rax+0x0],al
   1400089fe:	00 00                	add    BYTE PTR [rax],al
   140008a00:	90                   	nop
   140008a01:	48 00 00             	rex.W add BYTE PTR [rax],al
	...
   140008a10:	d8 47 00             	fadd   DWORD PTR [rdi+0x0]
	...
   140008a27:	00 01                	add    BYTE PTR [rcx],al
   140008a29:	00 00                	add    BYTE PTR [rax],al
   140008a2b:	00 28                	add    BYTE PTR [rax],ch
   140008a2d:	48 00 00             	rex.W add BYTE PTR [rax],al
	...
   140008a38:	01 00                	add    DWORD PTR [rax],eax
	...
   140008a42:	00 00                	add    BYTE PTR [rax],al
   140008a44:	50                   	push   rax
   140008a45:	60                   	(bad)  
   140008a46:	00 00                	add    BYTE PTR [rax],al
   140008a48:	90                   	nop
   140008a49:	48 00 00             	rex.W add BYTE PTR [rax],al
   140008a4c:	50                   	push   rax
   140008a4d:	48 00 00             	rex.W add BYTE PTR [rax],al
	...
   140008a68:	03 00                	add    eax,DWORD PTR [rax]
   140008a6a:	00 00                	add    BYTE PTR [rax],al
   140008a6c:	a0 47 00 00 00 00 00 	movabs al,ds:0x47
   140008a73:	00 00 
	...
   140008a7d:	00 00                	add    BYTE PTR [rax],al
   140008a7f:	00 02                	add    BYTE PTR [rdx],al
   140008a81:	00 00                	add    BYTE PTR [rax],al
   140008a83:	00 c0                	add    al,al
   140008a85:	47 00 00             	rex.RXB add BYTE PTR [r8],r8b
	...
   140008a90:	01 00                	add    DWORD PTR [rax],eax
	...
   140008a9a:	00 00                	add    BYTE PTR [rax],al
   140008a9c:	a0 60 00 00 78 48 00 	movabs al,ds:0xa800004878000060
   140008aa3:	00 a8 
   140008aa5:	48 00 00             	rex.W add BYTE PTR [rax],al
	...
   140008ab8:	a0 60 00 00 02 00 00 	movabs al,ds:0x2000060
   140008abf:	00 00 
   140008ac1:	00 00                	add    BYTE PTR [rax],al
   140008ac3:	00 ff                	add    bh,bh
   140008ac5:	ff                   	(bad)  
   140008ac6:	ff                   	(bad)  
   140008ac7:	ff 00                	inc    DWORD PTR [rax]
   140008ac9:	00 00                	add    BYTE PTR [rax],al
   140008acb:	00 40 00             	add    BYTE PTR [rax+0x0],al
   140008ace:	00 00                	add    BYTE PTR [rax],al
   140008ad0:	78 48                	js     0x140008b1a
	...
   140008ada:	00 00                	add    BYTE PTR [rax],al
   140008adc:	18 00                	sbb    BYTE PTR [rax],al
   140008ade:	00 00                	add    BYTE PTR [rax],al
   140008ae0:	00 80 00 80 00 00    	add    BYTE PTR [rax+0x8000],al
	...
   140008af2:	00 00                	add    BYTE PTR [rax],al
   140008af4:	52                   	push   rdx
   140008af5:	53                   	push   rbx
   140008af6:	44 53                	rex.R push rbx
   140008af8:	0b 7a 24             	or     edi,DWORD PTR [rdx+0x24]
   140008afb:	d2 a5 d2 69 40 86    	shl    BYTE PTR [rbp-0x79bf962e],cl
   140008b01:	50                   	push   rax
   140008b02:	94                   	xchg   esp,eax
   140008b03:	ed                   	in     eax,dx
   140008b04:	db 19                	fistp  DWORD PTR [rcx]
   140008b06:	06                   	(bad)  
   140008b07:	8e 01                	mov    es,WORD PTR [rcx]
   140008b09:	00 00                	add    BYTE PTR [rax],al
   140008b0b:	00 44 3a 5c          	add    BYTE PTR [rdx+rdi*1+0x5c],al
   140008b0f:	43 61                	rex.XB (bad) 
   140008b11:	70 74                	jo     0x140008b87
   140008b13:	75 72                	jne    0x140008b87
   140008b15:	65 20 54 68 65       	and    BYTE PTR gs:[rax+rbp*2+0x65],dl
   140008b1a:	20 46 6c             	and    BYTE PTR [rsi+0x6c],al
   140008b1d:	61                   	(bad)  
   140008b1e:	67 5c                	addr32 pop rsp
   140008b20:	48 61                	rex.W (bad) 
   140008b22:	63 6b 66             	movsxd ebp,DWORD PTR [rbx+0x66]
   140008b25:	6f                   	outs   dx,DWORD PTR ds:[rsi]
   140008b26:	72 63                	jb     0x140008b8b
   140008b28:	65 73 5c             	gs jae 0x140008b87
   140008b2b:	73 75                	jae    0x140008ba2
   140008b2d:	70 65                	jo     0x140008b94
   140008b2f:	72 5f                	jb     0x140008b90
   140008b31:	6c                   	ins    BYTE PTR es:[rdi],dx
   140008b32:	69 6e 6b 65 72 5c 78 	imul   ebp,DWORD PTR [rsi+0x6b],0x785c7265
   140008b39:	36 34 5c             	ss xor al,0x5c
   140008b3c:	52                   	push   rdx
   140008b3d:	65 6c                	gs ins BYTE PTR es:[rdi],dx
   140008b3f:	65 61                	gs (bad) 
   140008b41:	73 65                	jae    0x140008ba8
   140008b43:	5c                   	pop    rsp
   140008b44:	73 75                	jae    0x140008bbb
   140008b46:	70 65                	jo     0x140008bad
   140008b48:	72 5f                	jb     0x140008ba9
   140008b4a:	6c                   	ins    BYTE PTR es:[rdi],dx
   140008b4b:	69 6e 6b 65 72 2e 70 	imul   ebp,DWORD PTR [rsi+0x6b],0x702e7265
   140008b52:	64 62                	fs (bad) 
	...
   140008b5c:	1a 00                	sbb    al,BYTE PTR [rax]
   140008b5e:	00 00                	add    BYTE PTR [rax],al
   140008b60:	1a 00                	sbb    al,BYTE PTR [rax]
   140008b62:	00 00                	add    BYTE PTR [rax],al
   140008b64:	02 00                	add    al,BYTE PTR [rax]
   140008b66:	00 00                	add    BYTE PTR [rax],al
   140008b68:	18 00                	sbb    BYTE PTR [rax],al
   140008b6a:	00 00                	add    BYTE PTR [rax],al
   140008b6c:	47                   	rex.RXB
   140008b6d:	43 54                	rex.XB push r12
   140008b6f:	4c 00 10             	rex.WR add BYTE PTR [rax],r10b
   140008b72:	00 00                	add    BYTE PTR [rax],al
   140008b74:	60                   	(bad)  
   140008b75:	20 00                	and    BYTE PTR [rax],al
   140008b77:	00 2e                	add    BYTE PTR [rsi],ch
   140008b79:	74 65                	je     0x140008be0
   140008b7b:	78 74                	js     0x140008bf1
   140008b7d:	24 6d                	and    al,0x6d
   140008b7f:	6e                   	outs   dx,BYTE PTR ds:[rsi]
   140008b80:	00 00                	add    BYTE PTR [rax],al
   140008b82:	00 00                	add    BYTE PTR [rax],al
   140008b84:	60                   	(bad)  
   140008b85:	30 00                	xor    BYTE PTR [rax],al
   140008b87:	00 40 00             	add    BYTE PTR [rax+0x0],al
   140008b8a:	00 00                	add    BYTE PTR [rax],al
   140008b8c:	2e 74 65             	cs je  0x140008bf4
   140008b8f:	78 74                	js     0x140008c05
   140008b91:	24 6d                	and    al,0x6d
   140008b93:	6e                   	outs   dx,BYTE PTR ds:[rsi]
   140008b94:	24 30                	and    al,0x30
   140008b96:	30 00                	xor    BYTE PTR [rax],al
   140008b98:	a0 30 00 00 9e 00 00 	movabs al,ds:0x2e0000009e000030
   140008b9f:	00 2e 
   140008ba1:	74 65                	je     0x140008c08
   140008ba3:	78 74                	js     0x140008c19
   140008ba5:	24 78                	and    al,0x78
   140008ba7:	00 00                	add    BYTE PTR [rax],al
   140008ba9:	40 00 00             	rex add BYTE PTR [rax],al
   140008bac:	a0 01 00 00 2e 69 64 	movabs al,ds:0x746164692e000001
   140008bb3:	61 74 
   140008bb5:	61                   	(bad)  
   140008bb6:	24 35                	and    al,0x35
   140008bb8:	00 00                	add    BYTE PTR [rax],al
   140008bba:	00 00                	add    BYTE PTR [rax],al
   140008bbc:	a0 41 00 00 28 00 00 	movabs al,ds:0x2e00000028000041
   140008bc3:	00 2e 
   140008bc5:	30 30                	xor    BYTE PTR [rax],dh
   140008bc7:	63 66 67             	movsxd esp,DWORD PTR [rsi+0x67]
   140008bca:	00 00                	add    BYTE PTR [rax],al
   140008bcc:	c8 41 00 00          	enter  0x41,0x0
   140008bd0:	08 00                	or     BYTE PTR [rax],al
   140008bd2:	00 00                	add    BYTE PTR [rax],al
   140008bd4:	2e 43 52             	cs rex.XB push r10
   140008bd7:	54                   	push   rsp
   140008bd8:	24 58                	and    al,0x58
   140008bda:	43                   	rex.XB
   140008bdb:	41 00 00             	add    BYTE PTR [r8],al
   140008bde:	00 00                	add    BYTE PTR [rax],al
   140008be0:	d0 41 00             	rol    BYTE PTR [rcx+0x0],1
   140008be3:	00 08                	add    BYTE PTR [rax],cl
   140008be5:	00 00                	add    BYTE PTR [rax],al
   140008be7:	00 2e                	add    BYTE PTR [rsi],ch
   140008be9:	43 52                	rex.XB push r10
   140008beb:	54                   	push   rsp
   140008bec:	24 58                	and    al,0x58
   140008bee:	43 5a                	rex.XB pop r10
   140008bf0:	00 00                	add    BYTE PTR [rax],al
   140008bf2:	00 00                	add    BYTE PTR [rax],al
   140008bf4:	d8 41 00             	fadd   DWORD PTR [rcx+0x0]
   140008bf7:	00 08                	add    BYTE PTR [rax],cl
   140008bf9:	00 00                	add    BYTE PTR [rax],al
   140008bfb:	00 2e                	add    BYTE PTR [rsi],ch
   140008bfd:	43 52                	rex.XB push r10
   140008bff:	54                   	push   rsp
   140008c00:	24 58                	and    al,0x58
   140008c02:	49                   	rex.WB
   140008c03:	41 00 00             	add    BYTE PTR [r8],al
   140008c06:	00 00                	add    BYTE PTR [rax],al
   140008c08:	e0 41                	loopne 0x140008c4b
   140008c0a:	00 00                	add    BYTE PTR [rax],al
   140008c0c:	08 00                	or     BYTE PTR [rax],al
   140008c0e:	00 00                	add    BYTE PTR [rax],al
   140008c10:	2e 43 52             	cs rex.XB push r10
   140008c13:	54                   	push   rsp
   140008c14:	24 58                	and    al,0x58
   140008c16:	49 5a                	rex.WB pop r10
   140008c18:	00 00                	add    BYTE PTR [rax],al
   140008c1a:	00 00                	add    BYTE PTR [rax],al
   140008c1c:	e8 41 00 00 08       	call   0x148008c62
   140008c21:	00 00                	add    BYTE PTR [rax],al
   140008c23:	00 2e                	add    BYTE PTR [rsi],ch
   140008c25:	43 52                	rex.XB push r10
   140008c27:	54                   	push   rsp
   140008c28:	24 58                	and    al,0x58
   140008c2a:	50                   	push   rax
   140008c2b:	41 00 00             	add    BYTE PTR [r8],al
   140008c2e:	00 00                	add    BYTE PTR [rax],al
   140008c30:	f0 41 00 00          	lock add BYTE PTR [r8],al
   140008c34:	08 00                	or     BYTE PTR [rax],al
   140008c36:	00 00                	add    BYTE PTR [rax],al
   140008c38:	2e 43 52             	cs rex.XB push r10
   140008c3b:	54                   	push   rsp
   140008c3c:	24 58                	and    al,0x58
   140008c3e:	50                   	push   rax
   140008c3f:	5a                   	pop    rdx
   140008c40:	00 00                	add    BYTE PTR [rax],al
   140008c42:	00 00                	add    BYTE PTR [rax],al
   140008c44:	f8                   	clc    
   140008c45:	41 00 00             	add    BYTE PTR [r8],al
   140008c48:	08 00                	or     BYTE PTR [rax],al
   140008c4a:	00 00                	add    BYTE PTR [rax],al
   140008c4c:	2e 43 52             	cs rex.XB push r10
   140008c4f:	54                   	push   rsp
   140008c50:	24 58                	and    al,0x58
   140008c52:	54                   	push   rsp
   140008c53:	41 00 00             	add    BYTE PTR [r8],al
   140008c56:	00 00                	add    BYTE PTR [rax],al
   140008c58:	00 42 00             	add    BYTE PTR [rdx+0x0],al
   140008c5b:	00 10                	add    BYTE PTR [rax],dl
   140008c5d:	00 00                	add    BYTE PTR [rax],al
   140008c5f:	00 2e                	add    BYTE PTR [rsi],ch
   140008c61:	43 52                	rex.XB push r10
   140008c63:	54                   	push   rsp
   140008c64:	24 58                	and    al,0x58
   140008c66:	54                   	push   rsp
   140008c67:	5a                   	pop    rdx
   140008c68:	00 00                	add    BYTE PTR [rax],al
   140008c6a:	00 00                	add    BYTE PTR [rax],al
   140008c6c:	10 42 00             	adc    BYTE PTR [rdx+0x0],al
   140008c6f:	00 f0                	add    al,dh
   140008c71:	04 00                	add    al,0x0
   140008c73:	00 2e                	add    BYTE PTR [rsi],ch
   140008c75:	72 64                	jb     0x140008cdb
   140008c77:	61                   	(bad)  
   140008c78:	74 61                	je     0x140008cdb
   140008c7a:	00 00                	add    BYTE PTR [rax],al
   140008c7c:	00 47 00             	add    BYTE PTR [rdi+0x0],al
   140008c7f:	00 f4                	add    ah,dh
   140008c81:	01 00                	add    DWORD PTR [rax],eax
   140008c83:	00 2e                	add    BYTE PTR [rsi],ch
   140008c85:	72 64                	jb     0x140008ceb
   140008c87:	61                   	(bad)  
   140008c88:	74 61                	je     0x140008ceb
   140008c8a:	24 72                	and    al,0x72
   140008c8c:	00 00                	add    BYTE PTR [rax],al
   140008c8e:	00 00                	add    BYTE PTR [rax],al
   140008c90:	f4                   	hlt    
   140008c91:	48 00 00             	rex.W add BYTE PTR [rax],al
   140008c94:	18 00                	sbb    BYTE PTR [rax],al
   140008c96:	00 00                	add    BYTE PTR [rax],al
   140008c98:	2e 72 64             	cs jb  0x140008cff
   140008c9b:	61                   	(bad)  
   140008c9c:	74 61                	je     0x140008cff
   140008c9e:	24 76                	and    al,0x76
   140008ca0:	6f                   	outs   dx,DWORD PTR ds:[rsi]
   140008ca1:	6c                   	ins    BYTE PTR es:[rdi],dx
   140008ca2:	74 6d                	je     0x140008d11
   140008ca4:	64 00 00             	add    BYTE PTR fs:[rax],al
   140008ca7:	00 0c 49             	add    BYTE PTR [rcx+rcx*2],cl
   140008caa:	00 00                	add    BYTE PTR [rax],al
   140008cac:	0c 03                	or     al,0x3
   140008cae:	00 00                	add    BYTE PTR [rax],al
   140008cb0:	2e 72 64             	cs jb  0x140008d17
   140008cb3:	61                   	(bad)  
   140008cb4:	74 61                	je     0x140008d17
   140008cb6:	24 7a                	and    al,0x7a
   140008cb8:	7a 7a                	jp     0x140008d34
   140008cba:	64 62                	fs (bad) 
   140008cbc:	67 00 00             	add    BYTE PTR [eax],al
   140008cbf:	00 18                	add    BYTE PTR [rax],bl
   140008cc1:	4c 00 00             	rex.WR add BYTE PTR [rax],r8b
   140008cc4:	08 00                	or     BYTE PTR [rax],al
   140008cc6:	00 00                	add    BYTE PTR [rax],al
   140008cc8:	2e 72 74             	cs jb  0x140008d3f
   140008ccb:	63 24 49             	movsxd esp,DWORD PTR [rcx+rcx*2]
   140008cce:	41                   	rex.B
   140008ccf:	41 00 00             	add    BYTE PTR [r8],al
   140008cd2:	00 00                	add    BYTE PTR [rax],al
   140008cd4:	20 4c 00 00          	and    BYTE PTR [rax+rax*1+0x0],cl
   140008cd8:	08 00                	or     BYTE PTR [rax],al
   140008cda:	00 00                	add    BYTE PTR [rax],al
   140008cdc:	2e 72 74             	cs jb  0x140008d53
   140008cdf:	63 24 49             	movsxd esp,DWORD PTR [rcx+rcx*2]
   140008ce2:	5a                   	pop    rdx
   140008ce3:	5a                   	pop    rdx
   140008ce4:	00 00                	add    BYTE PTR [rax],al
   140008ce6:	00 00                	add    BYTE PTR [rax],al
   140008ce8:	28 4c 00 00          	sub    BYTE PTR [rax+rax*1+0x0],cl
   140008cec:	08 00                	or     BYTE PTR [rax],al
   140008cee:	00 00                	add    BYTE PTR [rax],al
   140008cf0:	2e 72 74             	cs jb  0x140008d67
   140008cf3:	63 24 54             	movsxd esp,DWORD PTR [rsp+rdx*2]
   140008cf6:	41                   	rex.B
   140008cf7:	41 00 00             	add    BYTE PTR [r8],al
   140008cfa:	00 00                	add    BYTE PTR [rax],al
   140008cfc:	30 4c 00 00          	xor    BYTE PTR [rax+rax*1+0x0],cl
   140008d00:	08 00                	or     BYTE PTR [rax],al
   140008d02:	00 00                	add    BYTE PTR [rax],al
   140008d04:	2e 72 74             	cs jb  0x140008d7b
   140008d07:	63 24 54             	movsxd esp,DWORD PTR [rsp+rdx*2]
   140008d0a:	5a                   	pop    rdx
   140008d0b:	5a                   	pop    rdx
   140008d0c:	00 00                	add    BYTE PTR [rax],al
   140008d0e:	00 00                	add    BYTE PTR [rax],al
   140008d10:	38 4c 00 00          	cmp    BYTE PTR [rax+rax*1+0x0],cl
   140008d14:	90                   	nop
   140008d15:	02 00                	add    al,BYTE PTR [rax]
   140008d17:	00 2e                	add    BYTE PTR [rsi],ch
   140008d19:	78 64                	js     0x140008d7f
   140008d1b:	61                   	(bad)  
   140008d1c:	74 61                	je     0x140008d7f
   140008d1e:	00 00                	add    BYTE PTR [rax],al
   140008d20:	c8 4e 00 00          	enter  0x4e,0x0
   140008d24:	ec                   	in     al,dx
   140008d25:	00 00                	add    BYTE PTR [rax],al
   140008d27:	00 2e                	add    BYTE PTR [rsi],ch
   140008d29:	78 64                	js     0x140008d8f
   140008d2b:	61                   	(bad)  
   140008d2c:	74 61                	je     0x140008d8f
   140008d2e:	24 78                	and    al,0x78
   140008d30:	00 00                	add    BYTE PTR [rax],al
   140008d32:	00 00                	add    BYTE PTR [rax],al
   140008d34:	b4 4f                	mov    ah,0x4f
   140008d36:	00 00                	add    BYTE PTR [rax],al
   140008d38:	8c 00                	mov    WORD PTR [rax],es
   140008d3a:	00 00                	add    BYTE PTR [rax],al
   140008d3c:	2e 69 64 61 74 61 24 	cs imul esp,DWORD PTR [rcx+riz*2+0x74],0x322461
   140008d43:	32 00 
   140008d45:	00 00                	add    BYTE PTR [rax],al
   140008d47:	00 40 50             	add    BYTE PTR [rax+0x50],al
   140008d4a:	00 00                	add    BYTE PTR [rax],al
   140008d4c:	18 00                	sbb    BYTE PTR [rax],al
   140008d4e:	00 00                	add    BYTE PTR [rax],al
   140008d50:	2e 69 64 61 74 61 24 	cs imul esp,DWORD PTR [rcx+riz*2+0x74],0x332461
   140008d57:	33 00 
   140008d59:	00 00                	add    BYTE PTR [rax],al
   140008d5b:	00 58 50             	add    BYTE PTR [rax+0x50],bl
   140008d5e:	00 00                	add    BYTE PTR [rax],al
   140008d60:	a0 01 00 00 2e 69 64 	movabs al,ds:0x746164692e000001
   140008d67:	61 74 
   140008d69:	61                   	(bad)  
   140008d6a:	24 34                	and    al,0x34
   140008d6c:	00 00                	add    BYTE PTR [rax],al
   140008d6e:	00 00                	add    BYTE PTR [rax],al
   140008d70:	f8                   	clc    
   140008d71:	51                   	push   rcx
   140008d72:	00 00                	add    BYTE PTR [rax],al
   140008d74:	4a 04 00             	rex.WX add al,0x0
   140008d77:	00 2e                	add    BYTE PTR [rsi],ch
   140008d79:	69 64 61 74 61 24 36 	imul   esp,DWORD PTR [rcx+riz*2+0x74],0x362461
   140008d80:	00 
   140008d81:	00 00                	add    BYTE PTR [rax],al
   140008d83:	00 00                	add    BYTE PTR [rax],al
   140008d85:	60                   	(bad)  
   140008d86:	00 00                	add    BYTE PTR [rax],al
   140008d88:	50                   	push   rax
   140008d89:	00 00                	add    BYTE PTR [rax],al
   140008d8b:	00 2e                	add    BYTE PTR [rsi],ch
   140008d8d:	64 61                	fs (bad) 
   140008d8f:	74 61                	je     0x140008df2
   140008d91:	00 00                	add    BYTE PTR [rax],al
   140008d93:	00 50 60             	add    BYTE PTR [rax+0x60],dl
   140008d96:	00 00                	add    BYTE PTR [rax],al
   140008d98:	80 00 00             	add    BYTE PTR [rax],0x0
   140008d9b:	00 2e                	add    BYTE PTR [rsi],ch
   140008d9d:	64 61                	fs (bad) 
   140008d9f:	74 61                	je     0x140008e02
   140008da1:	24 72                	and    al,0x72
   140008da3:	00 d0                	add    al,dl
   140008da5:	60                   	(bad)  
   140008da6:	00 00                	add    BYTE PTR [rax],al
   140008da8:	20 00                	and    BYTE PTR [rax],al
   140008daa:	00 00                	add    BYTE PTR [rax],al
   140008dac:	2e 64 61             	cs fs (bad) 
   140008daf:	74 61                	je     0x140008e12
   140008db1:	24 72                	and    al,0x72
   140008db3:	73 00                	jae    0x140008db5
   140008db5:	00 00                	add    BYTE PTR [rax],al
   140008db7:	00 f0                	add    al,dh
   140008db9:	60                   	(bad)  
   140008dba:	00 00                	add    BYTE PTR [rax],al
   140008dbc:	08 06                	or     BYTE PTR [rsi],al
   140008dbe:	00 00                	add    BYTE PTR [rax],al
   140008dc0:	2e 62 73             	cs (bad) 
   140008dc3:	73 00                	jae    0x140008dc5
   140008dc5:	00 00                	add    BYTE PTR [rax],al
   140008dc7:	00 00                	add    BYTE PTR [rax],al
   140008dc9:	70 00                	jo     0x140008dcb
   140008dcb:	00 d0                	add    al,dl
   140008dcd:	02 00                	add    al,BYTE PTR [rax]
   140008dcf:	00 2e                	add    BYTE PTR [rsi],ch
   140008dd1:	70 64                	jo     0x140008e37
   140008dd3:	61                   	(bad)  
   140008dd4:	74 61                	je     0x140008e37
   140008dd6:	00 00                	add    BYTE PTR [rax],al
   140008dd8:	00 80 00 00 60 00    	add    BYTE PTR [rax+0x600000],al
   140008dde:	00 00                	add    BYTE PTR [rax],al
   140008de0:	2e 72 73             	cs jb  0x140008e56
   140008de3:	72 63                	jb     0x140008e48
   140008de5:	24 30                	and    al,0x30
   140008de7:	31 00                	xor    DWORD PTR [rax],eax
   140008de9:	00 00                	add    BYTE PTR [rax],al
   140008deb:	00 60 80             	add    BYTE PTR [rax-0x80],ah
   140008dee:	00 00                	add    BYTE PTR [rax],al
   140008df0:	98                   	cwde   
   140008df1:	00 00                	add    BYTE PTR [rax],al
   140008df3:	00 2e                	add    BYTE PTR [rsi],ch
   140008df5:	72 73                	jb     0x140008e6a
   140008df7:	72 63                	jb     0x140008e5c
   140008df9:	24 30                	and    al,0x30
   140008dfb:	32 00                	xor    al,BYTE PTR [rax]
	...
   140008e1d:	00 00                	add    BYTE PTR [rax],al
   140008e1f:	00 01                	add    BYTE PTR [rcx],al
   140008e21:	14 0a                	adc    al,0xa
   140008e23:	00 14 34             	add    BYTE PTR [rsp+rsi*1],dl
   140008e26:	0c 00                	or     al,0x0
   140008e28:	14 32                	adc    al,0x32
   140008e2a:	10 f0                	adc    al,dh
   140008e2c:	0e                   	(bad)  
   140008e2d:	e0 0c                	loopne 0x140008e3b
   140008e2f:	d0 0a                	ror    BYTE PTR [rdx],1
   140008e31:	c0 08 70             	ror    BYTE PTR [rax],0x70
   140008e34:	07                   	(bad)  
   140008e35:	60                   	(bad)  
   140008e36:	06                   	(bad)  
   140008e37:	50                   	push   rax
   140008e38:	01 19                	add    DWORD PTR [rcx],ebx
   140008e3a:	0a 00                	or     al,BYTE PTR [rax]
   140008e3c:	19 54 0a 00          	sbb    DWORD PTR [rdx+rcx*1+0x0],edx
   140008e40:	19 34 09             	sbb    DWORD PTR [rcx+rcx*1],esi
   140008e43:	00 19                	add    BYTE PTR [rcx],bl
   140008e45:	f0 17                	lock (bad) 
   140008e47:	e0 15                	loopne 0x140008e5e
   140008e49:	d0 13                	rcl    BYTE PTR [rbx],1
   140008e4b:	c0 11 70             	rcl    BYTE PTR [rcx],0x70
   140008e4e:	10 60 01             	adc    BYTE PTR [rax+0x1],ah
   140008e51:	1a 03                	sbb    al,BYTE PTR [rbx]
   140008e53:	00 1a                	add    BYTE PTR [rdx],bl
   140008e55:	62 16                	(bad)  
   140008e57:	70 15                	jo     0x140008e6e
   140008e59:	30 00                	xor    BYTE PTR [rax],al
   140008e5b:	00 01                	add    BYTE PTR [rcx],al
   140008e5d:	06                   	(bad)  
   140008e5e:	02 00                	add    al,BYTE PTR [rax]
   140008e60:	06                   	(bad)  
   140008e61:	32 02                	xor    al,BYTE PTR [rdx]
   140008e63:	30 01                	xor    BYTE PTR [rcx],al
   140008e65:	0a 04 00             	or     al,BYTE PTR [rax+rax*1]
   140008e68:	0a 34 06             	or     dh,BYTE PTR [rsi+rax*1]
   140008e6b:	00 0a                	add    BYTE PTR [rdx],cl
   140008e6d:	32 06                	xor    al,BYTE PTR [rsi]
   140008e6f:	70 01                	jo     0x140008e72
   140008e71:	04 01                	add    al,0x1
   140008e73:	00 04 82             	add    BYTE PTR [rdx+rax*4],al
   140008e76:	00 00                	add    BYTE PTR [rax],al
   140008e78:	01 04 01             	add    DWORD PTR [rcx+rax*1],eax
   140008e7b:	00 04 42             	add    BYTE PTR [rdx+rax*2],al
   140008e7e:	00 00                	add    BYTE PTR [rax],al
   140008e80:	19 32                	sbb    DWORD PTR [rdx],esi
   140008e82:	0d 00 24 74 37       	or     eax,0x37742400
   140008e87:	00 24 64             	add    BYTE PTR [rsp+riz*2],ah
   140008e8a:	36 00 24 34          	ss add BYTE PTR [rsp+rsi*1],ah
   140008e8e:	35 00 24 01 2e       	xor    eax,0x2e012400
   140008e93:	00 18                	add    BYTE PTR [rax],bl
   140008e95:	f0 16                	lock (bad) 
   140008e97:	e0 14                	loopne 0x140008ead
   140008e99:	d0 12                	rcl    BYTE PTR [rdx],1
   140008e9b:	c0 10 50             	rcl    BYTE PTR [rax],0x50
   140008e9e:	00 00                	add    BYTE PTR [rax],al
   140008ea0:	c4                   	(bad)  
   140008ea1:	2f                   	(bad)  
   140008ea2:	00 00                	add    BYTE PTR [rax],al
   140008ea4:	c4                   	(bad)  
   140008ea5:	4c 00 00             	rex.WR add BYTE PTR [rax],r8b
   140008ea8:	62 01                	(bad)  
   140008eaa:	00 00                	add    BYTE PTR [rax],al
   140008eac:	28 cd                	sub    ch,cl
   140008eae:	4c 00 00             	rex.WR add BYTE PTR [rax],r8b
   140008eb1:	d4                   	(bad)  
   140008eb2:	4c 00 00             	rex.WR add BYTE PTR [rax],r8b
   140008eb5:	02 0c a0             	add    cl,BYTE PTR [rax+riz*4]
   140008eb8:	1f                   	(bad)  
   140008eb9:	00 00                	add    BYTE PTR [rax],al
   140008ebb:	60                   	(bad)  
   140008ebc:	04 d4                	add    al,0xd4
   140008ebe:	00 55 05             	add    BYTE PTR [rbp+0x5],dl
   140008ec1:	02 00                	add    al,BYTE PTR [rax]
   140008ec3:	00 19                	add    BYTE PTR [rcx],bl
   140008ec5:	26 05 00 15 34 44    	es add eax,0x44341500
   140008ecb:	00 15 01 42 00 06    	add    BYTE PTR [rip+0x6004201],dl        # 0x14600d0d2
   140008ed1:	50                   	push   rax
   140008ed2:	00 00                	add    BYTE PTR [rax],al
   140008ed4:	48 2f                	rex.W (bad) 
   140008ed6:	00 00                	add    BYTE PTR [rax],al
   140008ed8:	00 02                	add    BYTE PTR [rdx],al
   140008eda:	00 00                	add    BYTE PTR [rax],al
   140008edc:	01 0d 06 00 0d 34    	add    DWORD PTR [rip+0x340d0006],ecx        # 0x1740d8ee8
   140008ee2:	0b 00                	or     eax,DWORD PTR [rax]
   140008ee4:	0d 32 09 e0 07       	or     eax,0x7e00932
   140008ee9:	70 06                	jo     0x140008ef1
   140008eeb:	60                   	(bad)  
   140008eec:	21 05 02 00 05 54    	and    DWORD PTR [rip+0x54050002],eax        # 0x194058ef4
   140008ef2:	09 00                	or     DWORD PTR [rax],eax
   140008ef4:	00 20                	add    BYTE PTR [rax],ah
   140008ef6:	00 00                	add    BYTE PTR [rax],al
   140008ef8:	66 20 00             	data16 and BYTE PTR [rax],al
   140008efb:	00 f4                	add    ah,dh
   140008efd:	4c 00 00             	rex.WR add BYTE PTR [rax],r8b
   140008f00:	21 00                	and    DWORD PTR [rax],eax
   140008f02:	02 00                	add    al,BYTE PTR [rax]
   140008f04:	00 54 09 00          	add    BYTE PTR [rcx+rcx*1+0x0],dl
   140008f08:	00 20                	add    BYTE PTR [rax],ah
   140008f0a:	00 00                	add    BYTE PTR [rax],al
   140008f0c:	66 20 00             	data16 and BYTE PTR [rax],al
   140008f0f:	00 f4                	add    ah,dh
   140008f11:	4c 00 00             	rex.WR add BYTE PTR [rax],r8b
   140008f14:	21 00                	and    DWORD PTR [rax],eax
   140008f16:	00 00                	add    BYTE PTR [rax],al
   140008f18:	00 20                	add    BYTE PTR [rax],ah
   140008f1a:	00 00                	add    BYTE PTR [rax],al
   140008f1c:	66 20 00             	data16 and BYTE PTR [rax],al
   140008f1f:	00 f4                	add    ah,dh
   140008f21:	4c 00 00             	rex.WR add BYTE PTR [rax],r8b
   140008f24:	00 00                	add    BYTE PTR [rax],al
   140008f26:	00 00                	add    BYTE PTR [rax],al
   140008f28:	01 00                	add    DWORD PTR [rax],eax
   140008f2a:	00 00                	add    BYTE PTR [rax],al
   140008f2c:	11 15 08 00 15 74    	adc    DWORD PTR [rip+0x74150008],edx        # 0x1b4158f3a
   140008f32:	09 00                	or     DWORD PTR [rax],eax
   140008f34:	15 64 07 00 15       	adc    eax,0x15000764
   140008f39:	34 06                	xor    al,0x6
   140008f3b:	00 15 32 11 e0 e6    	add    BYTE PTR [rip+0xffffffffe6e01132],dl        # 0x126e0a073
   140008f41:	2e 00 00             	cs add BYTE PTR [rax],al
   140008f44:	02 00                	add    al,BYTE PTR [rax]
   140008f46:	00 00                	add    BYTE PTR [rax],al
   140008f48:	98                   	cwde   
   140008f49:	22 00                	and    al,BYTE PTR [rax]
   140008f4b:	00 07                	add    BYTE PTR [rdi],al
   140008f4d:	23 00                	and    eax,DWORD PTR [rax]
   140008f4f:	00 ac 30 00 00 00 00 	add    BYTE PTR [rax+rsi*1+0x0],ch
   140008f56:	00 00                	add    BYTE PTR [rax],al
   140008f58:	6a 23                	push   0x23
   140008f5a:	00 00                	add    BYTE PTR [rax],al
   140008f5c:	75 23                	jne    0x140008f81
   140008f5e:	00 00                	add    BYTE PTR [rax],al
   140008f60:	ac                   	lods   al,BYTE PTR ds:[rsi]
   140008f61:	30 00                	xor    BYTE PTR [rax],al
   140008f63:	00 00                	add    BYTE PTR [rax],al
   140008f65:	00 00                	add    BYTE PTR [rax],al
   140008f67:	00 01                	add    BYTE PTR [rcx],al
   140008f69:	06                   	(bad)  
   140008f6a:	02 00                	add    al,BYTE PTR [rax]
   140008f6c:	06                   	(bad)  
   140008f6d:	32 02                	xor    al,BYTE PTR [rdx]
   140008f6f:	50                   	push   rax
   140008f70:	11 0a                	adc    DWORD PTR [rdx],ecx
   140008f72:	04 00                	add    al,0x0
   140008f74:	0a 34 08             	or     dh,BYTE PTR [rax+rcx*1]
   140008f77:	00 0a                	add    BYTE PTR [rdx],cl
   140008f79:	52                   	push   rdx
   140008f7a:	06                   	(bad)  
   140008f7b:	70 e6                	jo     0x140008f63
   140008f7d:	2e 00 00             	cs add BYTE PTR [rax],al
   140008f80:	04 00                	add    al,0x0
   140008f82:	00 00                	add    BYTE PTR [rax],al
   140008f84:	af                   	scas   eax,DWORD PTR es:[rdi]
   140008f85:	23 00                	and    eax,DWORD PTR [rax]
   140008f87:	00 ce                	add    dh,cl
   140008f89:	23 00                	and    eax,DWORD PTR [rax]
   140008f8b:	00 c3                	add    bl,al
   140008f8d:	30 00                	xor    BYTE PTR [rax],al
   140008f8f:	00 00                	add    BYTE PTR [rax],al
   140008f91:	00 00                	add    BYTE PTR [rax],al
   140008f93:	00 a4 23 00 00 e6 23 	add    BYTE PTR [rbx+riz*1+0x23e60000],ah
   140008f9a:	00 00                	add    BYTE PTR [rax],al
   140008f9c:	dc 30                	fdiv   QWORD PTR [rax]
   140008f9e:	00 00                	add    BYTE PTR [rax],al
   140008fa0:	00 00                	add    BYTE PTR [rax],al
   140008fa2:	00 00                	add    BYTE PTR [rax],al
   140008fa4:	ef                   	out    dx,eax
   140008fa5:	23 00                	and    eax,DWORD PTR [rax]
   140008fa7:	00 fa                	add    dl,bh
   140008fa9:	23 00                	and    eax,DWORD PTR [rax]
   140008fab:	00 c3                	add    bl,al
   140008fad:	30 00                	xor    BYTE PTR [rax],al
   140008faf:	00 00                	add    BYTE PTR [rax],al
   140008fb1:	00 00                	add    BYTE PTR [rax],al
   140008fb3:	00 ef                	add    bh,ch
   140008fb5:	23 00                	and    eax,DWORD PTR [rax]
   140008fb7:	00 fb                	add    bl,bh
   140008fb9:	23 00                	and    eax,DWORD PTR [rax]
   140008fbb:	00 dc                	add    ah,bl
   140008fbd:	30 00                	xor    BYTE PTR [rax],al
   140008fbf:	00 00                	add    BYTE PTR [rax],al
   140008fc1:	00 00                	add    BYTE PTR [rax],al
   140008fc3:	00 09                	add    BYTE PTR [rcx],cl
   140008fc5:	1a 06                	sbb    al,BYTE PTR [rsi]
   140008fc7:	00 1a                	add    BYTE PTR [rdx],bl
   140008fc9:	34 0f                	xor    al,0xf
   140008fcb:	00 1a                	add    BYTE PTR [rdx],bl
   140008fcd:	72 16                	jb     0x140008fe5
   140008fcf:	e0 14                	loopne 0x140008fe5
   140008fd1:	70 13                	jo     0x140008fe6
   140008fd3:	60                   	(bad)  
   140008fd4:	e6 2e                	out    0x2e,al
   140008fd6:	00 00                	add    BYTE PTR [rax],al
   140008fd8:	01 00                	add    DWORD PTR [rax],eax
   140008fda:	00 00                	add    BYTE PTR [rax],al
   140008fdc:	31 24 00             	xor    DWORD PTR [rax+rax*1],esp
   140008fdf:	00 17                	add    BYTE PTR [rdi],dl
   140008fe1:	25 00 00 f0 30       	and    eax,0x30f00000
   140008fe6:	00 00                	add    BYTE PTR [rax],al
   140008fe8:	17                   	(bad)  
   140008fe9:	25 00 00 01 06       	and    eax,0x6010000
   140008fee:	02 00                	add    al,BYTE PTR [rax]
   140008ff0:	06                   	(bad)  
   140008ff1:	52                   	push   rdx
   140008ff2:	02 50 01             	add    dl,BYTE PTR [rax+0x1]
   140008ff5:	0f 06                	clts   
   140008ff7:	00 0f                	add    BYTE PTR [rdi],cl
   140008ff9:	64 07                	fs (bad) 
   140008ffb:	00 0f                	add    BYTE PTR [rdi],cl
   140008ffd:	34 06                	xor    al,0x6
   140008fff:	00 0f                	add    BYTE PTR [rdi],cl
   140009001:	32 0b                	xor    cl,BYTE PTR [rbx]
   140009003:	70 01                	jo     0x140009006
   140009005:	09 01                	or     DWORD PTR [rcx],eax
   140009007:	00 09                	add    BYTE PTR [rcx],cl
   140009009:	62                   	(bad)  
   14000900a:	00 00                	add    BYTE PTR [rax],al
   14000900c:	01 08                	add    DWORD PTR [rax],ecx
   14000900e:	04 00                	add    al,0x0
   140009010:	08 72 04             	or     BYTE PTR [rdx+0x4],dh
   140009013:	70 03                	jo     0x140009018
   140009015:	60                   	(bad)  
   140009016:	02 30                	add    dh,BYTE PTR [rax]
   140009018:	01 0d 04 00 0d 34    	add    DWORD PTR [rip+0x340d0004],ecx        # 0x1740d9022
   14000901e:	09 00                	or     DWORD PTR [rax],eax
   140009020:	0d 32 06 50 09       	or     eax,0x9500632
   140009025:	04 01                	add    al,0x1
   140009027:	00 04 22             	add    BYTE PTR [rdx+riz*1],al
   14000902a:	00 00                	add    BYTE PTR [rax],al
   14000902c:	e6 2e                	out    0x2e,al
   14000902e:	00 00                	add    BYTE PTR [rax],al
   140009030:	01 00                	add    DWORD PTR [rax],eax
   140009032:	00 00                	add    BYTE PTR [rax],al
   140009034:	63 2a                	movsxd ebp,DWORD PTR [rdx]
   140009036:	00 00                	add    BYTE PTR [rax],al
   140009038:	ed                   	in     eax,dx
   140009039:	2a 00                	sub    al,BYTE PTR [rax]
   14000903b:	00 26                	add    BYTE PTR [rsi],ah
   14000903d:	31 00                	xor    DWORD PTR [rax],eax
   14000903f:	00 ed                	add    ch,ch
   140009041:	2a 00                	sub    al,BYTE PTR [rax]
   140009043:	00 01                	add    BYTE PTR [rcx],al
   140009045:	02 01                	add    al,BYTE PTR [rcx]
   140009047:	00 02                	add    BYTE PTR [rdx],al
   140009049:	50                   	push   rax
   14000904a:	00 00                	add    BYTE PTR [rax],al
   14000904c:	01 14 08             	add    DWORD PTR [rax+rcx*1],edx
   14000904f:	00 14 64             	add    BYTE PTR [rsp+riz*2],dl
   140009052:	08 00                	or     BYTE PTR [rax],al
   140009054:	14 54                	adc    al,0x54
   140009056:	07                   	(bad)  
   140009057:	00 14 34             	add    BYTE PTR [rsp+rsi*1],dl
   14000905a:	06                   	(bad)  
   14000905b:	00 14 32             	add    BYTE PTR [rdx+rsi*1],dl
   14000905e:	10 70 01             	adc    BYTE PTR [rax+0x1],dh
   140009061:	15 05 00 15 34       	adc    eax,0x34150005
   140009066:	ba 00 15 01 b8       	mov    edx,0xb8011500
   14000906b:	00 06                	add    BYTE PTR [rsi],al
   14000906d:	50                   	push   rax
   14000906e:	00 00                	add    BYTE PTR [rax],al
   140009070:	01 0f                	add    DWORD PTR [rdi],ecx
   140009072:	06                   	(bad)  
   140009073:	00 0f                	add    BYTE PTR [rdi],cl
   140009075:	64 06                	fs (bad) 
   140009077:	00 0f                	add    BYTE PTR [rdi],cl
   140009079:	34 05                	xor    al,0x5
   14000907b:	00 0f                	add    BYTE PTR [rdi],cl
   14000907d:	12 0b                	adc    cl,BYTE PTR [rbx]
   14000907f:	70 01                	jo     0x140009082
   140009081:	00 00                	add    BYTE PTR [rax],al
   140009083:	00 00                	add    BYTE PTR [rax],al
   140009085:	00 00                	add    BYTE PTR [rax],al
   140009087:	00 01                	add    BYTE PTR [rcx],al
   140009089:	00 00                	add    BYTE PTR [rax],al
   14000908b:	00 01                	add    BYTE PTR [rcx],al
   14000908d:	02 01                	add    al,BYTE PTR [rcx]
   14000908f:	00 02                	add    BYTE PTR [rdx],al
   140009091:	30 00                	xor    BYTE PTR [rax],al
   140009093:	00 01                	add    BYTE PTR [rcx],al
   140009095:	19 0a                	sbb    DWORD PTR [rdx],ecx
   140009097:	00 19                	add    BYTE PTR [rcx],bl
   140009099:	74 09                	je     0x1400090a4
   14000909b:	00 19                	add    BYTE PTR [rcx],bl
   14000909d:	64 08 00             	or     BYTE PTR fs:[rax],al
   1400090a0:	19 54 07 00          	sbb    DWORD PTR [rdi+rax*1+0x0],edx
   1400090a4:	19 34 06             	sbb    DWORD PTR [rsi+rax*1],esi
   1400090a7:	00 19                	add    BYTE PTR [rcx],bl
   1400090a9:	32 15 e0 00 00 00    	xor    dl,BYTE PTR [rip+0xe0]        # 0x14000918f
   1400090af:	00 00                	add    BYTE PTR [rax],al
   1400090b1:	00 00                	add    BYTE PTR [rax],al
   1400090b3:	00 f0                	add    al,dh
   1400090b5:	17                   	(bad)  
   1400090b6:	00 00                	add    BYTE PTR [rax],al
   1400090b8:	00 00                	add    BYTE PTR [rax],al
   1400090ba:	00 00                	add    BYTE PTR [rax],al
   1400090bc:	e8 4e 00 00 00       	call   0x14000910f
	...
   1400090cd:	00 00                	add    BYTE PTR [rax],al
   1400090cf:	00 02                	add    BYTE PTR [rdx],al
   1400090d1:	00 00                	add    BYTE PTR [rax],al
   1400090d3:	00 48 4f             	add    BYTE PTR [rax+0x4f],cl
   1400090d6:	00 00                	add    BYTE PTR [rax],al
   1400090d8:	70 4f                	jo     0x140009129
	...
   1400090e6:	00 00                	add    BYTE PTR [rax],al
   1400090e8:	03 00                	add    eax,DWORD PTR [rax]
   1400090ea:	00 00                	add    BYTE PTR [rax],al
   1400090ec:	20 4f 00             	and    BYTE PTR [rdi+0x0],cl
   1400090ef:	00 48 4f             	add    BYTE PTR [rax+0x4f],cl
   1400090f2:	00 00                	add    BYTE PTR [rax],al
   1400090f4:	70 4f                	jo     0x140009145
	...
   14000910a:	00 00                	add    BYTE PTR [rax],al
   14000910c:	a0 60 00 00 00 00 00 	movabs al,ds:0xff00000000000060
   140009113:	00 ff 
   140009115:	ff                   	(bad)  
   140009116:	ff                   	(bad)  
   140009117:	ff 00                	inc    DWORD PTR [rax]
   140009119:	00 00                	add    BYTE PTR [rax],al
   14000911b:	00 18                	add    BYTE PTR [rax],bl
   14000911d:	00 00                	add    BYTE PTR [rax],al
   14000911f:	00 60 18             	add    BYTE PTR [rax+0x18],ah
	...
   14000912e:	00 00                	add    BYTE PTR [rax],al
   140009130:	10 00                	adc    BYTE PTR [rax],al
   140009132:	00 00                	add    BYTE PTR [rax],al
   140009134:	50                   	push   rax
   140009135:	60                   	(bad)  
   140009136:	00 00                	add    BYTE PTR [rax],al
   140009138:	00 00                	add    BYTE PTR [rax],al
   14000913a:	00 00                	add    BYTE PTR [rax],al
   14000913c:	ff                   	(bad)  
   14000913d:	ff                   	(bad)  
   14000913e:	ff                   	(bad)  
   14000913f:	ff 00                	inc    DWORD PTR [rax]
   140009141:	00 00                	add    BYTE PTR [rax],al
   140009143:	00 18                	add    BYTE PTR [rax],bl
   140009145:	00 00                	add    BYTE PTR [rax],al
   140009147:	00 a0 18 00 00 00    	add    BYTE PTR [rax+0x18],ah
	...
   140009159:	00 00                	add    BYTE PTR [rax],al
   14000915b:	00 78 60             	add    BYTE PTR [rax+0x60],bh
   14000915e:	00 00                	add    BYTE PTR [rax],al
   140009160:	00 00                	add    BYTE PTR [rax],al
   140009162:	00 00                	add    BYTE PTR [rax],al
   140009164:	ff                   	(bad)  
   140009165:	ff                   	(bad)  
   140009166:	ff                   	(bad)  
   140009167:	ff 00                	inc    DWORD PTR [rax]
   140009169:	00 00                	add    BYTE PTR [rax],al
   14000916b:	00 18                	add    BYTE PTR [rax],bl
   14000916d:	00 00                	add    BYTE PTR [rax],al
   14000916f:	00 40 17             	add    BYTE PTR [rax+0x17],al
	...
   140009182:	00 00                	add    BYTE PTR [rax],al
   140009184:	f0 17                	lock (bad) 
   140009186:	00 00                	add    BYTE PTR [rax],al
   140009188:	00 00                	add    BYTE PTR [rax],al
   14000918a:	00 00                	add    BYTE PTR [rax],al
   14000918c:	00 4f 00             	add    BYTE PTR [rdi+0x0],cl
	...
   14000919b:	00 58 50             	add    BYTE PTR [rax+0x50],bl
	...
   1400091a6:	00 00                	add    BYTE PTR [rax],al
   1400091a8:	50                   	push   rax
   1400091a9:	52                   	push   rdx
   1400091aa:	00 00                	add    BYTE PTR [rax],al
   1400091ac:	00 40 00             	add    BYTE PTR [rax+0x0],al
   1400091af:	00 f0                	add    al,dh
   1400091b1:	50                   	push   rax
	...
   1400091ba:	00 00                	add    BYTE PTR [rax],al
   1400091bc:	80 52 00 00          	adc    BYTE PTR [rdx+0x0],0x0
   1400091c0:	98                   	cwde   
   1400091c1:	40 00 00             	rex add BYTE PTR [rax],al
   1400091c4:	50                   	push   rax
   1400091c5:	51                   	push   rcx
	...
   1400091ce:	00 00                	add    BYTE PTR [rax],al
   1400091d0:	2e 53                	cs push rbx
   1400091d2:	00 00                	add    BYTE PTR [rax],al
   1400091d4:	f8                   	clc    
   1400091d5:	40 00 00             	rex add BYTE PTR [rax],al
   1400091d8:	00 51 00             	add    BYTE PTR [rcx+0x0],dl
	...
   1400091e3:	00 42 53             	add    BYTE PTR [rdx+0x53],al
   1400091e6:	00 00                	add    BYTE PTR [rax],al
   1400091e8:	a8 40                	test   al,0x40
   1400091ea:	00 00                	add    BYTE PTR [rax],al
   1400091ec:	80 51 00 00          	adc    BYTE PTR [rcx+0x0],0x0
	...
   1400091f8:	8c 54 00 00          	mov    WORD PTR [rax+rax*1+0x0],ss
   1400091fc:	28 41 00             	sub    BYTE PTR [rcx+0x0],al
   1400091ff:	00 d8                	add    al,bl
   140009201:	51                   	push   rcx
	...
   14000920a:	00 00                	add    BYTE PTR [rax],al
   14000920c:	ae                   	scas   al,BYTE PTR es:[rdi]
   14000920d:	54                   	push   rsp
   14000920e:	00 00                	add    BYTE PTR [rax],al
   140009210:	80 41 00 00          	add    BYTE PTR [rcx+0x0],0x0
   140009214:	60                   	(bad)  
   140009215:	51                   	push   rcx
	...
   14000921e:	00 00                	add    BYTE PTR [rax],al
   140009220:	ce                   	(bad)  
   140009221:	54                   	push   rsp
   140009222:	00 00                	add    BYTE PTR [rax],al
   140009224:	08 41 00             	or     BYTE PTR [rcx+0x0],al
	...
   14000923f:	00 f8                	add    al,bh
   140009241:	51                   	push   rcx
   140009242:	00 00                	add    BYTE PTR [rax],al
   140009244:	00 00                	add    BYTE PTR [rax],al
   140009246:	00 00                	add    BYTE PTR [rax],al
   140009248:	0c 52                	or     al,0x52
   14000924a:	00 00                	add    BYTE PTR [rax],al
   14000924c:	00 00                	add    BYTE PTR [rax],al
   14000924e:	00 00                	add    BYTE PTR [rax],al
   140009250:	20 52 00             	and    BYTE PTR [rdx+0x0],dl
   140009253:	00 00                	add    BYTE PTR [rax],al
   140009255:	00 00                	add    BYTE PTR [rax],al
   140009257:	00 30                	add    BYTE PTR [rax],dh
   140009259:	52                   	push   rdx
   14000925a:	00 00                	add    BYTE PTR [rax],al
   14000925c:	00 00                	add    BYTE PTR [rax],al
   14000925e:	00 00                	add    BYTE PTR [rax],al
   140009260:	42 52                	rex.X push rdx
   140009262:	00 00                	add    BYTE PTR [rax],al
   140009264:	00 00                	add    BYTE PTR [rax],al
   140009266:	00 00                	add    BYTE PTR [rax],al
   140009268:	02 55 00             	add    dl,BYTE PTR [rbp+0x0]
   14000926b:	00 00                	add    BYTE PTR [rax],al
   14000926d:	00 00                	add    BYTE PTR [rax],al
   14000926f:	00 1c 55 00 00 00 00 	add    BYTE PTR [rdx*2+0x0],bl
   140009276:	00 00                	add    BYTE PTR [rax],al
   140009278:	30 55 00             	xor    BYTE PTR [rbp+0x0],dl
   14000927b:	00 00                	add    BYTE PTR [rax],al
   14000927d:	00 00                	add    BYTE PTR [rax],al
   14000927f:	00 4c 55 00          	add    BYTE PTR [rbp+rdx*2+0x0],cl
   140009283:	00 00                	add    BYTE PTR [rax],al
   140009285:	00 00                	add    BYTE PTR [rax],al
   140009287:	00 6a 55             	add    BYTE PTR [rdx+0x55],ch
   14000928a:	00 00                	add    BYTE PTR [rax],al
   14000928c:	00 00                	add    BYTE PTR [rax],al
   14000928e:	00 00                	add    BYTE PTR [rax],al
   140009290:	7e 55                	jle    0x1400092e7
   140009292:	00 00                	add    BYTE PTR [rax],al
   140009294:	00 00                	add    BYTE PTR [rax],al
   140009296:	00 00                	add    BYTE PTR [rax],al
   140009298:	9a                   	(bad)  
   140009299:	55                   	push   rbp
   14000929a:	00 00                	add    BYTE PTR [rax],al
   14000929c:	00 00                	add    BYTE PTR [rax],al
   14000929e:	00 00                	add    BYTE PTR [rax],al
   1400092a0:	b4 55                	mov    ah,0x55
   1400092a2:	00 00                	add    BYTE PTR [rax],al
   1400092a4:	00 00                	add    BYTE PTR [rax],al
   1400092a6:	00 00                	add    BYTE PTR [rax],al
   1400092a8:	ca 55 00             	retf   0x55
   1400092ab:	00 00                	add    BYTE PTR [rax],al
   1400092ad:	00 00                	add    BYTE PTR [rax],al
   1400092af:	00 e0                	add    al,ah
   1400092b1:	55                   	push   rbp
   1400092b2:	00 00                	add    BYTE PTR [rax],al
   1400092b4:	00 00                	add    BYTE PTR [rax],al
   1400092b6:	00 00                	add    BYTE PTR [rax],al
   1400092b8:	fa                   	cli    
   1400092b9:	55                   	push   rbp
   1400092ba:	00 00                	add    BYTE PTR [rax],al
   1400092bc:	00 00                	add    BYTE PTR [rax],al
   1400092be:	00 00                	add    BYTE PTR [rax],al
   1400092c0:	10 56 00             	adc    BYTE PTR [rsi+0x0],dl
   1400092c3:	00 00                	add    BYTE PTR [rax],al
   1400092c5:	00 00                	add    BYTE PTR [rax],al
   1400092c7:	00 ee                	add    dh,ch
   1400092c9:	54                   	push   rsp
	...
   1400092d6:	00 00                	add    BYTE PTR [rax],al
   1400092d8:	5e                   	pop    rsi
   1400092d9:	52                   	push   rdx
	...
   1400092e6:	00 00                	add    BYTE PTR [rax],al
   1400092e8:	04 53                	add    al,0x53
   1400092ea:	00 00                	add    BYTE PTR [rax],al
   1400092ec:	00 00                	add    BYTE PTR [rax],al
   1400092ee:	00 00                	add    BYTE PTR [rax],al
   1400092f0:	ee                   	out    dx,al
   1400092f1:	52                   	push   rdx
   1400092f2:	00 00                	add    BYTE PTR [rax],al
   1400092f4:	00 00                	add    BYTE PTR [rax],al
   1400092f6:	00 00                	add    BYTE PTR [rax],al
   1400092f8:	d6                   	(bad)  
   1400092f9:	52                   	push   rdx
   1400092fa:	00 00                	add    BYTE PTR [rax],al
   1400092fc:	00 00                	add    BYTE PTR [rax],al
   1400092fe:	00 00                	add    BYTE PTR [rax],al
   140009300:	be 52 00 00 00       	mov    esi,0x52
   140009305:	00 00                	add    BYTE PTR [rax],al
   140009307:	00 a4 52 00 00 00 00 	add    BYTE PTR [rdx+rdx*2+0x0],ah
   14000930e:	00 00                	add    BYTE PTR [rax],al
   140009310:	2e 56                	cs push rsi
   140009312:	00 00                	add    BYTE PTR [rax],al
   140009314:	00 00                	add    BYTE PTR [rax],al
   140009316:	00 00                	add    BYTE PTR [rax],al
   140009318:	38 56 00             	cmp    BYTE PTR [rsi+0x0],dl
   14000931b:	00 00                	add    BYTE PTR [rax],al
   14000931d:	00 00                	add    BYTE PTR [rax],al
   14000931f:	00 24 56             	add    BYTE PTR [rsi+rdx*2],ah
   140009322:	00 00                	add    BYTE PTR [rax],al
   140009324:	00 00                	add    BYTE PTR [rax],al
   140009326:	00 00                	add    BYTE PTR [rax],al
   140009328:	24 53                	and    al,0x53
	...
   140009336:	00 00                	add    BYTE PTR [rax],al
   140009338:	8e 52 00             	mov    ss,WORD PTR [rdx+0x0]
	...
   140009347:	00 c8                	add    al,cl
   140009349:	53                   	push   rbx
   14000934a:	00 00                	add    BYTE PTR [rax],al
   14000934c:	00 00                	add    BYTE PTR [rax],al
   14000934e:	00 00                	add    BYTE PTR [rax],al
   140009350:	f8                   	clc    
   140009351:	53                   	push   rbx
   140009352:	00 00                	add    BYTE PTR [rax],al
   140009354:	00 00                	add    BYTE PTR [rax],al
   140009356:	00 00                	add    BYTE PTR [rax],al
   140009358:	d4                   	(bad)  
   140009359:	53                   	push   rbx
	...
   140009366:	00 00                	add    BYTE PTR [rax],al
   140009368:	82                   	(bad)  
   140009369:	54                   	push   rsp
   14000936a:	00 00                	add    BYTE PTR [rax],al
   14000936c:	00 00                	add    BYTE PTR [rax],al
   14000936e:	00 00                	add    BYTE PTR [rax],al
   140009370:	4e 54                	rex.WRX push rsp
   140009372:	00 00                	add    BYTE PTR [rax],al
   140009374:	00 00                	add    BYTE PTR [rax],al
   140009376:	00 00                	add    BYTE PTR [rax],al
   140009378:	2c 54                	sub    al,0x54
   14000937a:	00 00                	add    BYTE PTR [rax],al
   14000937c:	00 00                	add    BYTE PTR [rax],al
   14000937e:	00 00                	add    BYTE PTR [rax],al
   140009380:	12 54 00 00          	adc    dl,BYTE PTR [rax+rax*1+0x0]
   140009384:	00 00                	add    BYTE PTR [rax],al
   140009386:	00 00                	add    BYTE PTR [rax],al
   140009388:	ea                   	(bad)  
   140009389:	53                   	push   rbx
   14000938a:	00 00                	add    BYTE PTR [rax],al
   14000938c:	00 00                	add    BYTE PTR [rax],al
   14000938e:	00 00                	add    BYTE PTR [rax],al
   140009390:	de 53 00             	ficom  WORD PTR [rbx+0x0]
   140009393:	00 00                	add    BYTE PTR [rax],al
   140009395:	00 00                	add    BYTE PTR [rax],al
   140009397:	00 a2 53 00 00 00    	add    BYTE PTR [rdx+0x53],ah
   14000939d:	00 00                	add    BYTE PTR [rax],al
   14000939f:	00 6a 54             	add    BYTE PTR [rdx+0x54],ch
   1400093a2:	00 00                	add    BYTE PTR [rax],al
   1400093a4:	00 00                	add    BYTE PTR [rax],al
   1400093a6:	00 00                	add    BYTE PTR [rax],al
   1400093a8:	54                   	push   rsp
   1400093a9:	53                   	push   rbx
   1400093aa:	00 00                	add    BYTE PTR [rax],al
   1400093ac:	00 00                	add    BYTE PTR [rax],al
   1400093ae:	00 00                	add    BYTE PTR [rax],al
   1400093b0:	00 54 00 00          	add    BYTE PTR [rax+rax*1+0x0],dl
	...
   1400093c0:	88 53 00             	mov    BYTE PTR [rbx+0x0],dl
   1400093c3:	00 00                	add    BYTE PTR [rax],al
   1400093c5:	00 00                	add    BYTE PTR [rax],al
   1400093c7:	00 6e 53             	add    BYTE PTR [rsi+0x53],ch
   1400093ca:	00 00                	add    BYTE PTR [rax],al
   1400093cc:	00 00                	add    BYTE PTR [rax],al
   1400093ce:	00 00                	add    BYTE PTR [rax],al
   1400093d0:	5c                   	pop    rsp
   1400093d1:	53                   	push   rbx
	...
   1400093de:	00 00                	add    BYTE PTR [rax],al
   1400093e0:	20 02                	and    BYTE PTR [rdx],al
   1400093e2:	47                   	rex.RXB
   1400093e3:	65 74 43             	gs je  0x140009429
   1400093e6:	75 72                	jne    0x14000945a
   1400093e8:	72 65                	jb     0x14000944f
   1400093ea:	6e                   	outs   dx,BYTE PTR ds:[rsi]
   1400093eb:	74 50                	je     0x14000943d
   1400093ed:	72 6f                	jb     0x14000945e
   1400093ef:	63 65 73             	movsxd esp,DWORD PTR [rbp+0x73]
   1400093f2:	73 00                	jae    0x1400093f4
   1400093f4:	7e 02                	jle    0x1400093f8
   1400093f6:	47                   	rex.RXB
   1400093f7:	65 74 4d             	gs je  0x140009447
   1400093fa:	6f                   	outs   dx,DWORD PTR ds:[rsi]
   1400093fb:	64 75 6c             	fs jne 0x14000946a
   1400093fe:	65 48 61             	gs rex.W (bad) 
   140009401:	6e                   	outs   dx,BYTE PTR ds:[rsi]
   140009402:	64 6c                	fs ins BYTE PTR es:[rdi],dx
   140009404:	65 41 00 00          	add    BYTE PTR gs:[r8],al
   140009408:	c8 03 4c 6f          	enter  0x4c03,0x6f
   14000940c:	61                   	(bad)  
   14000940d:	64 4c 69 62 72 61 72 	imul   r12,QWORD PTR fs:[rdx+0x72],0x41797261
   140009414:	79 41 
   140009416:	00 00                	add    BYTE PTR [rax],al
   140009418:	b8 02 47 65 74       	mov    eax,0x74654702
   14000941d:	50                   	push   rax
   14000941e:	72 6f                	jb     0x14000948f
   140009420:	63 41 64             	movsxd eax,DWORD PTR [rcx+0x64]
   140009423:	64 72 65             	fs jb  0x14000948b
   140009426:	73 73                	jae    0x14000949b
   140009428:	00 00                	add    BYTE PTR [rax],al
   14000942a:	67 01 45 78          	add    DWORD PTR [ebp+0x78],eax
   14000942e:	69 74 50 72 6f 63 65 	imul   esi,DWORD PTR [rax+rdx*2+0x72],0x7365636f
   140009435:	73 
   140009436:	73 00                	jae    0x140009438
   140009438:	4b                   	rex.WXB
   140009439:	45 52                	rex.RB push r10
   14000943b:	4e                   	rex.WRX
   14000943c:	45                   	rex.RB
   14000943d:	4c 33 32             	xor    r14,QWORD PTR [rdx]
   140009440:	2e 64 6c             	cs fs ins BYTE PTR es:[rdi],dx
   140009443:	6c                   	ins    BYTE PTR es:[rdi],dx
   140009444:	00 00                	add    BYTE PTR [rax],al
   140009446:	8e 02                	mov    es,WORD PTR [rdx]
   140009448:	3f                   	(bad)  
   140009449:	5f                   	pop    rdi
   14000944a:	58                   	pop    rax
   14000944b:	6c                   	ins    BYTE PTR es:[rdi],dx
   14000944c:	65 6e                	outs   dx,BYTE PTR gs:[rsi]
   14000944e:	67 74 68             	addr32 je 0x1400094b9
   140009451:	5f                   	pop    rdi
   140009452:	65 72 72             	gs jb  0x1400094c7
   140009455:	6f                   	outs   dx,DWORD PTR ds:[rsi]
   140009456:	72 40                	jb     0x140009498
   140009458:	73 74                	jae    0x1400094ce
   14000945a:	64 40                	fs rex
   14000945c:	40 59                	rex pop rcx
   14000945e:	41 58                	pop    r8
   140009460:	50                   	push   rax
   140009461:	45                   	rex.RB
   140009462:	42                   	rex.X
   140009463:	44                   	rex.R
   140009464:	40 5a                	rex pop rdx
   140009466:	00 00                	add    BYTE PTR [rax],al
   140009468:	4d 53                	rex.WRB push r11
   14000946a:	56                   	push   rsi
   14000946b:	43 50                	rex.XB push r8
   14000946d:	31 34 30             	xor    DWORD PTR [rax+rsi*1],esi
   140009470:	2e 64 6c             	cs fs ins BYTE PTR es:[rdi],dx
   140009473:	6c                   	ins    BYTE PTR es:[rdi],dx
   140009474:	00 00                	add    BYTE PTR [rax],al
   140009476:	00 00                	add    BYTE PTR [rax],al
   140009478:	5f                   	pop    rdi
   140009479:	5f                   	pop    rdi
   14000947a:	43 78 78             	rex.XB js 0x1400094f5
   14000947d:	46 72 61             	rex.RX jb 0x1400094e1
   140009480:	6d                   	ins    DWORD PTR es:[rdi],dx
   140009481:	65 48 61             	gs rex.W (bad) 
   140009484:	6e                   	outs   dx,BYTE PTR ds:[rsi]
   140009485:	64 6c                	fs ins BYTE PTR es:[rdi],dx
   140009487:	65 72 34             	gs jb  0x1400094be
   14000948a:	00 00                	add    BYTE PTR [rax],al
   14000948c:	22 00                	and    al,BYTE PTR [rax]
   14000948e:	5f                   	pop    rdi
   14000948f:	5f                   	pop    rdi
   140009490:	73 74                	jae    0x140009506
   140009492:	64 5f                	fs pop rdi
   140009494:	65 78 63             	gs js  0x1400094fa
   140009497:	65 70 74             	gs jo  0x14000950e
   14000949a:	69 6f 6e 5f 64 65 73 	imul   ebp,DWORD PTR [rdi+0x6e],0x7365645f
   1400094a1:	74 72                	je     0x140009515
   1400094a3:	6f                   	outs   dx,DWORD PTR ds:[rsi]
   1400094a4:	79 00                	jns    0x1400094a6
   1400094a6:	21 00                	and    DWORD PTR [rax],eax
   1400094a8:	5f                   	pop    rdi
   1400094a9:	5f                   	pop    rdi
   1400094aa:	73 74                	jae    0x140009520
   1400094ac:	64 5f                	fs pop rdi
   1400094ae:	65 78 63             	gs js  0x140009514
   1400094b1:	65 70 74             	gs jo  0x140009528
   1400094b4:	69 6f 6e 5f 63 6f 70 	imul   ebp,DWORD PTR [rdi+0x6e],0x706f635f
   1400094bb:	79 00                	jns    0x1400094bd
   1400094bd:	00 08                	add    BYTE PTR [rax],cl
   1400094bf:	00 5f 5f             	add    BYTE PTR [rdi+0x5f],bl
   1400094c2:	43 5f                	rex.XB pop r15
   1400094c4:	73 70                	jae    0x140009536
   1400094c6:	65 63 69 66          	movsxd ebp,DWORD PTR gs:[rcx+0x66]
   1400094ca:	69 63 5f 68 61 6e 64 	imul   esp,DWORD PTR [rbx+0x5f],0x646e6168
   1400094d1:	6c                   	ins    BYTE PTR es:[rdi],dx
   1400094d2:	65 72 00             	gs jb  0x1400094d5
   1400094d5:	00 01                	add    BYTE PTR [rcx],al
   1400094d7:	00 5f 43             	add    BYTE PTR [rdi+0x43],bl
   1400094da:	78 78                	js     0x140009554
   1400094dc:	54                   	push   rsp
   1400094dd:	68 72 6f 77 45       	push   0x45776f72
   1400094e2:	78 63                	js     0x140009547
   1400094e4:	65 70 74             	gs jo  0x14000955b
   1400094e7:	69 6f 6e 00 00 25 00 	imul   ebp,DWORD PTR [rdi+0x6e],0x250000
   1400094ee:	5f                   	pop    rdi
   1400094ef:	5f                   	pop    rdi
   1400094f0:	73 74                	jae    0x140009566
   1400094f2:	64 5f                	fs pop rdi
   1400094f4:	74 79                	je     0x14000956f
   1400094f6:	70 65                	jo     0x14000955d
   1400094f8:	5f                   	pop    rdi
   1400094f9:	69 6e 66 6f 5f 64 65 	imul   ebp,DWORD PTR [rsi+0x66],0x65645f6f
   140009500:	73 74                	jae    0x140009576
   140009502:	72 6f                	jb     0x140009573
   140009504:	79 5f                	jns    0x140009565
   140009506:	6c                   	ins    BYTE PTR es:[rdi],dx
   140009507:	69 73 74 00 00 3e 00 	imul   esi,DWORD PTR [rbx+0x74],0x3e0000
   14000950e:	6d                   	ins    DWORD PTR es:[rdi],dx
   14000950f:	65 6d                	gs ins DWORD PTR es:[rdi],dx
   140009511:	73 65                	jae    0x140009578
   140009513:	74 00                	je     0x140009515
   140009515:	00 56 43             	add    BYTE PTR [rsi+0x43],dl
   140009518:	52                   	push   rdx
   140009519:	55                   	push   rbp
   14000951a:	4e 54                	rex.WRX push rsp
   14000951c:	49                   	rex.WB
   14000951d:	4d                   	rex.WRB
   14000951e:	45 31 34 30          	xor    DWORD PTR [r8+rsi*1],r14d
   140009522:	5f                   	pop    rdi
   140009523:	31 2e                	xor    DWORD PTR [rsi],ebp
   140009525:	64 6c                	fs ins BYTE PTR es:[rdi],dx
   140009527:	6c                   	ins    BYTE PTR es:[rdi],dx
   140009528:	00 00                	add    BYTE PTR [rax],al
   14000952a:	56                   	push   rsi
   14000952b:	43 52                	rex.XB push r10
   14000952d:	55                   	push   rbp
   14000952e:	4e 54                	rex.WRX push rsp
   140009530:	49                   	rex.WB
   140009531:	4d                   	rex.WRB
   140009532:	45 31 34 30          	xor    DWORD PTR [r8+rsi*1],r14d
   140009536:	2e 64 6c             	cs fs ins BYTE PTR es:[rdi],dx
   140009539:	6c                   	ins    BYTE PTR es:[rdi],dx
   14000953a:	00 00                	add    BYTE PTR [rax],al
   14000953c:	55                   	push   rbp
   14000953d:	00 65 78             	add    BYTE PTR [rbp+0x78],ah
   140009540:	69 74 00 00 00 00 5f 	imul   esi,DWORD PTR [rax+rax*1+0x0],0x5f5f0000
   140009547:	5f 
   140009548:	61                   	(bad)  
   140009549:	63 72 74             	movsxd esi,DWORD PTR [rdx+0x74]
   14000954c:	5f                   	pop    rdi
   14000954d:	69 6f 62 5f 66 75 6e 	imul   ebp,DWORD PTR [rdi+0x62],0x6e75665f
   140009554:	63 00                	movsxd eax,DWORD PTR [rax]
   140009556:	03 00                	add    eax,DWORD PTR [rax]
   140009558:	5f                   	pop    rdi
   140009559:	5f                   	pop    rdi
   14000955a:	73 74                	jae    0x1400095d0
   14000955c:	64 69 6f 5f 63 6f 6d 	imul   ebp,DWORD PTR fs:[rdi+0x5f],0x6d6d6f63
   140009563:	6d 
   140009564:	6f                   	outs   dx,DWORD PTR ds:[rsi]
   140009565:	6e                   	outs   dx,BYTE PTR ds:[rsi]
   140009566:	5f                   	pop    rdi
   140009567:	76 66                	jbe    0x1400095cf
   140009569:	70 72                	jo     0x1400095dd
   14000956b:	69 6e 74 66 00 06 00 	imul   ebp,DWORD PTR [rsi+0x74],0x60066
   140009572:	5f                   	pop    rdi
   140009573:	5f                   	pop    rdi
   140009574:	73 74                	jae    0x1400095ea
   140009576:	64 69 6f 5f 63 6f 6d 	imul   ebp,DWORD PTR fs:[rdi+0x5f],0x6d6d6f63
   14000957d:	6d 
   14000957e:	6f                   	outs   dx,DWORD PTR ds:[rsi]
   14000957f:	6e                   	outs   dx,BYTE PTR ds:[rsi]
   140009580:	5f                   	pop    rdi
   140009581:	76 66                	jbe    0x1400095e9
   140009583:	73 63                	jae    0x1400095e8
   140009585:	61                   	(bad)  
   140009586:	6e                   	outs   dx,BYTE PTR ds:[rsi]
   140009587:	66 00 00             	data16 add BYTE PTR [rax],al
   14000958a:	39 00                	cmp    DWORD PTR [rax],eax
   14000958c:	5f                   	pop    rdi
   14000958d:	69 6e 76 61 6c 69 64 	imul   ebp,DWORD PTR [rsi+0x76],0x64696c61
   140009594:	5f                   	pop    rdi
   140009595:	70 61                	jo     0x1400095f8
   140009597:	72 61                	jb     0x1400095fa
   140009599:	6d                   	ins    DWORD PTR es:[rdi],dx
   14000959a:	65 74 65             	gs je  0x140009602
   14000959d:	72 5f                	jb     0x1400095fe
   14000959f:	6e                   	outs   dx,BYTE PTR ds:[rsi]
   1400095a0:	6f                   	outs   dx,DWORD PTR ds:[rsi]
   1400095a1:	69 6e 66 6f 5f 6e 6f 	imul   ebp,DWORD PTR [rsi+0x66],0x6f6e5f6f
   1400095a8:	72 65                	jb     0x14000960f
   1400095aa:	74 75                	je     0x140009621
   1400095ac:	72 6e                	jb     0x14000961c
   1400095ae:	00 00                	add    BYTE PTR [rax],al
   1400095b0:	08 00                	or     BYTE PTR [rax],al
   1400095b2:	5f                   	pop    rdi
   1400095b3:	63 61 6c             	movsxd esp,DWORD PTR [rcx+0x6c]
   1400095b6:	6c                   	ins    BYTE PTR es:[rdi],dx
   1400095b7:	6e                   	outs   dx,BYTE PTR ds:[rsi]
   1400095b8:	65 77 68             	gs ja  0x140009623
   1400095bb:	00 19                	add    BYTE PTR [rcx],bl
   1400095bd:	00 6d 61             	add    BYTE PTR [rbp+0x61],ch
   1400095c0:	6c                   	ins    BYTE PTR es:[rdi],dx
   1400095c1:	6c                   	ins    BYTE PTR es:[rdi],dx
   1400095c2:	6f                   	outs   dx,DWORD PTR ds:[rsi]
   1400095c3:	63 00                	movsxd eax,DWORD PTR [rax]
   1400095c5:	00 36                	add    BYTE PTR [rsi],dh
   1400095c7:	00 5f 69             	add    BYTE PTR [rdi+0x69],bl
   1400095ca:	6e                   	outs   dx,BYTE PTR ds:[rsi]
   1400095cb:	69 74 74 65 72 6d 00 	imul   esi,DWORD PTR [rsp+rsi*2+0x65],0x37006d72
   1400095d2:	37 
   1400095d3:	00 5f 69             	add    BYTE PTR [rdi+0x69],bl
   1400095d6:	6e                   	outs   dx,BYTE PTR ds:[rsi]
   1400095d7:	69 74 74 65 72 6d 5f 	imul   esi,DWORD PTR [rsp+rsi*2+0x65],0x655f6d72
   1400095de:	65 
   1400095df:	00 18                	add    BYTE PTR [rax],bl
   1400095e1:	00 66 72             	add    BYTE PTR [rsi+0x72],ah
   1400095e4:	65 65 00 00          	gs add BYTE PTR gs:[rax],al
   1400095e8:	3f                   	(bad)  
   1400095e9:	00 5f 73             	add    BYTE PTR [rdi+0x73],bl
   1400095ec:	65 68 5f 66 69 6c    	gs push 0x6c69665f
   1400095f2:	74 65                	je     0x140009659
   1400095f4:	72 5f                	jb     0x140009655
   1400095f6:	64 6c                	fs ins BYTE PTR es:[rdi],dx
   1400095f8:	6c                   	ins    BYTE PTR es:[rdi],dx
   1400095f9:	00 18                	add    BYTE PTR [rax],bl
   1400095fb:	00 5f 63             	add    BYTE PTR [rdi+0x63],bl
   1400095fe:	6f                   	outs   dx,DWORD PTR ds:[rsi]
   1400095ff:	6e                   	outs   dx,BYTE PTR ds:[rsi]
   140009600:	66 69 67 75 72 65    	imul   sp,WORD PTR [rdi+0x75],0x6572
   140009606:	5f                   	pop    rdi
   140009607:	6e                   	outs   dx,BYTE PTR ds:[rsi]
   140009608:	61                   	(bad)  
   140009609:	72 72                	jb     0x14000967d
   14000960b:	6f                   	outs   dx,DWORD PTR ds:[rsi]
   14000960c:	77 5f                	ja     0x14000966d
   14000960e:	61                   	(bad)  
   14000960f:	72 67                	jb     0x140009678
   140009611:	76 00                	jbe    0x140009613
   140009613:	00 33                	add    BYTE PTR [rbx],dh
   140009615:	00 5f 69             	add    BYTE PTR [rdi+0x69],bl
   140009618:	6e                   	outs   dx,BYTE PTR ds:[rsi]
   140009619:	69 74 69 61 6c 69 7a 	imul   esi,DWORD PTR [rcx+rbp*2+0x61],0x657a696c
   140009620:	65 
   140009621:	5f                   	pop    rdi
   140009622:	6e                   	outs   dx,BYTE PTR ds:[rsi]
   140009623:	61                   	(bad)  
   140009624:	72 72                	jb     0x140009698
   140009626:	6f                   	outs   dx,DWORD PTR ds:[rsi]
   140009627:	77 5f                	ja     0x140009688
   140009629:	65 6e                	outs   dx,BYTE PTR gs:[rsi]
   14000962b:	76 69                	jbe    0x140009696
   14000962d:	72 6f                	jb     0x14000969e
   14000962f:	6e                   	outs   dx,BYTE PTR ds:[rsi]
   140009630:	6d                   	ins    DWORD PTR es:[rdi],dx
   140009631:	65 6e                	outs   dx,BYTE PTR gs:[rsi]
   140009633:	74 00                	je     0x140009635
   140009635:	00 34 00             	add    BYTE PTR [rax+rax*1],dh
   140009638:	5f                   	pop    rdi
   140009639:	69 6e 69 74 69 61 6c 	imul   ebp,DWORD PTR [rsi+0x69],0x6c616974
   140009640:	69 7a 65 5f 6f 6e 65 	imul   edi,DWORD PTR [rdx+0x65],0x656e6f5f
   140009647:	78 69                	js     0x1400096b2
   140009649:	74 5f                	je     0x1400096aa
   14000964b:	74 61                	je     0x1400096ae
   14000964d:	62                   	(bad)  
   14000964e:	6c                   	ins    BYTE PTR es:[rdi],dx
   14000964f:	65 00 00             	add    BYTE PTR gs:[rax],al
   140009652:	22 00                	and    al,BYTE PTR [rax]
   140009654:	5f                   	pop    rdi
   140009655:	65 78 65             	gs js  0x1400096bd
   140009658:	63 75 74             	movsxd esi,DWORD PTR [rbp+0x74]
   14000965b:	65 5f                	gs pop rdi
   14000965d:	6f                   	outs   dx,DWORD PTR ds:[rsi]
   14000965e:	6e                   	outs   dx,BYTE PTR ds:[rsi]
   14000965f:	65 78 69             	gs js  0x1400096cb
   140009662:	74 5f                	je     0x1400096c3
   140009664:	74 61                	je     0x1400096c7
   140009666:	62                   	(bad)  
   140009667:	6c                   	ins    BYTE PTR es:[rdi],dx
   140009668:	65 00 16             	add    BYTE PTR gs:[rsi],dl
   14000966b:	00 5f 63             	add    BYTE PTR [rdi+0x63],bl
   14000966e:	65 78 69             	gs js  0x1400096da
   140009671:	74 00                	je     0x140009673
   140009673:	00 61 70             	add    BYTE PTR [rcx+0x70],ah
   140009676:	69 2d 6d 73 2d 77 69 	imul   ebp,DWORD PTR [rip+0x772d736d],0x632d6e69        # 0x1b72e09ed
   14000967d:	6e 2d 63 
   140009680:	72 74                	jb     0x1400096f6
   140009682:	2d 72 75 6e 74       	sub    eax,0x746e7572
   140009687:	69 6d 65 2d 6c 31 2d 	imul   ebp,DWORD PTR [rbp+0x65],0x2d316c2d
   14000968e:	31 2d 30 2e 64 6c    	xor    DWORD PTR [rip+0x6c642e30],ebp        # 0x1ac64c4c4
   140009694:	6c                   	ins    BYTE PTR es:[rdi],dx
   140009695:	00 61 70             	add    BYTE PTR [rcx+0x70],ah
   140009698:	69 2d 6d 73 2d 77 69 	imul   ebp,DWORD PTR [rip+0x772d736d],0x632d6e69        # 0x1b72e0a0f
   14000969f:	6e 2d 63 
   1400096a2:	72 74                	jb     0x140009718
   1400096a4:	2d 73 74 64 69       	sub    eax,0x69647473
   1400096a9:	6f                   	outs   dx,DWORD PTR ds:[rsi]
   1400096aa:	2d 6c 31 2d 31       	sub    eax,0x312d316c
   1400096af:	2d 30 2e 64 6c       	sub    eax,0x6c642e30
   1400096b4:	6c                   	ins    BYTE PTR es:[rdi],dx
   1400096b5:	00 61 70             	add    BYTE PTR [rcx+0x70],ah
   1400096b8:	69 2d 6d 73 2d 77 69 	imul   ebp,DWORD PTR [rip+0x772d736d],0x632d6e69        # 0x1b72e0a2f
   1400096bf:	6e 2d 63 
   1400096c2:	72 74                	jb     0x140009738
   1400096c4:	2d 68 65 61 70       	sub    eax,0x70616568
   1400096c9:	2d 6c 31 2d 31       	sub    eax,0x312d316c
   1400096ce:	2d 30 2e 64 6c       	sub    eax,0x6c642e30
   1400096d3:	6c                   	ins    BYTE PTR es:[rdi],dx
   1400096d4:	00 00                	add    BYTE PTR [rax],al
   1400096d6:	d5                   	(bad)  
   1400096d7:	04 52                	add    al,0x52
   1400096d9:	74 6c                	je     0x140009747
   1400096db:	43 61                	rex.XB (bad) 
   1400096dd:	70 74                	jo     0x140009753
   1400096df:	75 72                	jne    0x140009753
   1400096e1:	65 43 6f             	rex.XB outs dx,DWORD PTR gs:[rsi]
   1400096e4:	6e                   	outs   dx,BYTE PTR ds:[rsi]
   1400096e5:	74 65                	je     0x14000974c
   1400096e7:	78 74                	js     0x14000975d
   1400096e9:	00 dc                	add    ah,bl
   1400096eb:	04 52                	add    al,0x52
   1400096ed:	74 6c                	je     0x14000975b
   1400096ef:	4c 6f                	rex.WR outs dx,DWORD PTR ds:[rsi]
   1400096f1:	6f                   	outs   dx,DWORD PTR ds:[rsi]
   1400096f2:	6b 75 70 46          	imul   esi,DWORD PTR [rbp+0x70],0x46
   1400096f6:	75 6e                	jne    0x140009766
   1400096f8:	63 74 69 6f          	movsxd esi,DWORD PTR [rcx+rbp*2+0x6f]
   1400096fc:	6e                   	outs   dx,BYTE PTR ds:[rsi]
   1400096fd:	45 6e                	rex.RB outs dx,BYTE PTR ds:[rsi]
   1400096ff:	74 72                	je     0x140009773
   140009701:	79 00                	jns    0x140009703
   140009703:	00 e3                	add    bl,ah
   140009705:	04 52                	add    al,0x52
   140009707:	74 6c                	je     0x140009775
   140009709:	56                   	push   rsi
   14000970a:	69 72 74 75 61 6c 55 	imul   esi,DWORD PTR [rdx+0x74],0x556c6175
   140009711:	6e                   	outs   dx,BYTE PTR ds:[rsi]
   140009712:	77 69                	ja     0x14000977d
   140009714:	6e                   	outs   dx,BYTE PTR ds:[rsi]
   140009715:	64 00 00             	add    BYTE PTR fs:[rax],al
   140009718:	c0 05 55 6e 68 61 6e 	rol    BYTE PTR [rip+0x61686e55],0x6e        # 0x1a1690574
   14000971f:	64 6c                	fs ins BYTE PTR es:[rdi],dx
   140009721:	65 64 45 78 63       	gs fs rex.RB js 0x140009789
   140009726:	65 70 74             	gs jo  0x14000979d
   140009729:	69 6f 6e 46 69 6c 74 	imul   ebp,DWORD PTR [rdi+0x6e],0x746c6946
   140009730:	65 72 00             	gs jb  0x140009733
   140009733:	00 7f 05             	add    BYTE PTR [rdi+0x5],bh
   140009736:	53                   	push   rbx
   140009737:	65 74 55             	gs je  0x14000978f
   14000973a:	6e                   	outs   dx,BYTE PTR ds:[rsi]
   14000973b:	68 61 6e 64 6c       	push   0x6c646e61
   140009740:	65 64 45 78 63       	gs fs rex.RB js 0x1400097a8
   140009745:	65 70 74             	gs jo  0x1400097bc
   140009748:	69 6f 6e 46 69 6c 74 	imul   ebp,DWORD PTR [rdi+0x6e],0x746c6946
   14000974f:	65 72 00             	gs jb  0x140009752
   140009752:	9e                   	sahf   
   140009753:	05 54 65 72 6d       	add    eax,0x6d726554
   140009758:	69 6e 61 74 65 50 72 	imul   ebp,DWORD PTR [rsi+0x61],0x72506574
   14000975f:	6f                   	outs   dx,DWORD PTR ds:[rsi]
   140009760:	63 65 73             	movsxd esp,DWORD PTR [rbp+0x73]
   140009763:	73 00                	jae    0x140009765
   140009765:	00 8c 03 49 73 50 72 	add    BYTE PTR [rbx+rax*1+0x72507349],cl
   14000976c:	6f                   	outs   dx,DWORD PTR ds:[rsi]
   14000976d:	63 65 73             	movsxd esp,DWORD PTR [rbp+0x73]
   140009770:	73 6f                	jae    0x1400097e1
   140009772:	72 46                	jb     0x1400097ba
   140009774:	65 61                	gs (bad) 
   140009776:	74 75                	je     0x1400097ed
   140009778:	72 65                	jb     0x1400097df
   14000977a:	50                   	push   rax
   14000977b:	72 65                	jb     0x1400097e2
   14000977d:	73 65                	jae    0x1400097e4
   14000977f:	6e                   	outs   dx,BYTE PTR ds:[rsi]
   140009780:	74 00                	je     0x140009782
   140009782:	52                   	push   rdx
   140009783:	04 51                	add    al,0x51
   140009785:	75 65                	jne    0x1400097ec
   140009787:	72 79                	jb     0x140009802
   140009789:	50                   	push   rax
   14000978a:	65 72 66             	gs jb  0x1400097f3
   14000978d:	6f                   	outs   dx,DWORD PTR ds:[rsi]
   14000978e:	72 6d                	jb     0x1400097fd
   140009790:	61                   	(bad)  
   140009791:	6e                   	outs   dx,BYTE PTR ds:[rsi]
   140009792:	63 65 43             	movsxd esp,DWORD PTR [rbp+0x43]
   140009795:	6f                   	outs   dx,DWORD PTR ds:[rsi]
   140009796:	75 6e                	jne    0x140009806
   140009798:	74 65                	je     0x1400097ff
   14000979a:	72 00                	jb     0x14000979c
   14000979c:	21 02                	and    DWORD PTR [rdx],eax
   14000979e:	47                   	rex.RXB
   14000979f:	65 74 43             	gs je  0x1400097e5
   1400097a2:	75 72                	jne    0x140009816
   1400097a4:	72 65                	jb     0x14000980b
   1400097a6:	6e                   	outs   dx,BYTE PTR ds:[rsi]
   1400097a7:	74 50                	je     0x1400097f9
   1400097a9:	72 6f                	jb     0x14000981a
   1400097ab:	63 65 73             	movsxd esp,DWORD PTR [rbp+0x73]
   1400097ae:	73 49                	jae    0x1400097f9
   1400097b0:	64 00 25 02 47 65 74 	add    BYTE PTR fs:[rip+0x74654702],ah        # 0x1b465deb9
   1400097b7:	43 75 72             	rex.XB jne 0x14000982c
   1400097ba:	72 65                	jb     0x140009821
   1400097bc:	6e                   	outs   dx,BYTE PTR ds:[rsi]
   1400097bd:	74 54                	je     0x140009813
   1400097bf:	68 72 65 61 64       	push   0x64616572
   1400097c4:	49                   	rex.WB
   1400097c5:	64 00 00             	add    BYTE PTR fs:[rax],al
   1400097c8:	f3 02 47 65          	repz add al,BYTE PTR [rdi+0x65]
   1400097cc:	74 53                	je     0x140009821
   1400097ce:	79 73                	jns    0x140009843
   1400097d0:	74 65                	je     0x140009837
   1400097d2:	6d                   	ins    DWORD PTR es:[rdi],dx
   1400097d3:	54                   	push   rsp
   1400097d4:	69 6d 65 41 73 46 69 	imul   ebp,DWORD PTR [rbp+0x65],0x69467341
   1400097db:	6c                   	ins    BYTE PTR es:[rdi],dx
   1400097dc:	65 54                	gs push rsp
   1400097de:	69 6d 65 00 6f 03 49 	imul   ebp,DWORD PTR [rbp+0x65],0x49036f00
   1400097e5:	6e                   	outs   dx,BYTE PTR ds:[rsi]
   1400097e6:	69 74 69 61 6c 69 7a 	imul   esi,DWORD PTR [rcx+rbp*2+0x61],0x657a696c
   1400097ed:	65 
   1400097ee:	53                   	push   rbx
   1400097ef:	4c 69 73 74 48 65 61 	imul   r14,QWORD PTR [rbx+0x74],0x64616548
   1400097f6:	64 
   1400097f7:	00 85 03 49 73 44    	add    BYTE PTR [rbp+0x44734903],al
   1400097fd:	65 62 75 67 67 65    	(bad)
   140009803:	72 50                	jb     0x140009855
   140009805:	72 65                	jb     0x14000986c
   140009807:	73 65                	jae    0x14000986e
   140009809:	6e                   	outs   dx,BYTE PTR ds:[rsi]
   14000980a:	74 00                	je     0x14000980c
   14000980c:	3b 00                	cmp    eax,DWORD PTR [rax]
   14000980e:	6d                   	ins    DWORD PTR es:[rdi],dx
   14000980f:	65 6d                	gs ins DWORD PTR es:[rdi],dx
   140009811:	63 6d 70             	movsxd ebp,DWORD PTR [rbp+0x70]
   140009814:	00 00                	add    BYTE PTR [rax],al
   140009816:	3c 00                	cmp    al,0x0
   140009818:	6d                   	ins    DWORD PTR es:[rdi],dx
   140009819:	65 6d                	gs ins DWORD PTR es:[rdi],dx
   14000981b:	63 70 79             	movsxd esi,DWORD PTR [rax+0x79]
   14000981e:	00 00                	add    BYTE PTR [rax],al
   140009820:	3d 00 6d 65 6d       	cmp    eax,0x6d656d00
   140009825:	6d                   	ins    DWORD PTR es:[rdi],dx
   140009826:	6f                   	outs   dx,DWORD PTR ds:[rsi]
   140009827:	76 65                	jbe    0x14000988e
	...
   1400099e5:	00 00                	add    BYTE PTR [rax],al
   1400099e7:	00 cd                	add    ch,cl
   1400099e9:	5d                   	pop    rbp
   1400099ea:	20 d2                	and    dl,dl
   1400099ec:	66 d4                	data16 (bad) 
   1400099ee:	ff                   	(bad)  
   1400099ef:	ff 32                	push   QWORD PTR [rdx]
   1400099f1:	a2 df 2d 99 2b 00 00 	movabs ds:0xffff00002b992ddf,al
   1400099f8:	ff ff 
   1400099fa:	ff                   	(bad)  
   1400099fb:	ff 00                	inc    DWORD PTR [rax]
   1400099fd:	00 00                	add    BYTE PTR [rax],al
   1400099ff:	00 01                	add    BYTE PTR [rcx],al
   140009a01:	00 00                	add    BYTE PTR [rax],al
   140009a03:	00 02                	add    BYTE PTR [rdx],al
   140009a05:	00 00                	add    BYTE PTR [rax],al
   140009a07:	00 2f                	add    BYTE PTR [rdi],ch
   140009a09:	20 00                	and    BYTE PTR [rax],al
   140009a0b:	00 00                	add    BYTE PTR [rax],al
   140009a0d:	00 00                	add    BYTE PTR [rax],al
   140009a0f:	00 00                	add    BYTE PTR [rax],al
   140009a11:	f8                   	clc    
   140009a12:	00 00                	add    BYTE PTR [rax],al
   140009a14:	00 00                	add    BYTE PTR [rax],al
   140009a16:	00 00                	add    BYTE PTR [rax],al
   140009a18:	01 00                	add    DWORD PTR [rax],eax
   140009a1a:	00 00                	add    BYTE PTR [rax],al
   140009a1c:	00 00                	add    BYTE PTR [rax],al
   140009a1e:	00 00                	add    BYTE PTR [rax],al
   140009a20:	10 06                	adc    BYTE PTR [rsi],al
   140009a22:	36 0c 0b             	ss or  al,0xb
   140009a25:	1c 3e                	sbb    al,0x3e
   140009a27:	12 17                	adc    dl,BYTE PTR [rdi]
   140009a29:	1b 39                	sbb    edi,DWORD PTR [rcx]
   140009a2b:	1b 3c 06             	sbb    edi,DWORD PTR [rsi+rax*1]
   140009a2e:	17                   	(bad)  
   140009a2f:	07                   	(bad)  
   140009a30:	1d 00 00 00 00       	sbb    eax,0x0
   140009a35:	00 00                	add    BYTE PTR [rax],al
   140009a37:	00 18                	add    BYTE PTR [rax],bl
   140009a39:	42 00 80 01 00 00 00 	rex.X add BYTE PTR [rax+0x1],al
	...
   140009a48:	2e 3f                	cs (bad) 
   140009a4a:	41 56                	push   r14
   140009a4c:	62 61 64 5f 61       	(bad)
   140009a51:	6c                   	ins    BYTE PTR es:[rdi],dx
   140009a52:	6c                   	ins    BYTE PTR es:[rdi],dx
   140009a53:	6f                   	outs   dx,DWORD PTR ds:[rsi]
   140009a54:	63 40 73             	movsxd eax,DWORD PTR [rax+0x73]
   140009a57:	74 64                	je     0x140009abd
   140009a59:	40                   	rex
   140009a5a:	40 00 00             	rex add BYTE PTR [rax],al
   140009a5d:	00 00                	add    BYTE PTR [rax],al
   140009a5f:	00 18                	add    BYTE PTR [rax],bl
   140009a61:	42 00 80 01 00 00 00 	rex.X add BYTE PTR [rax+0x1],al
	...
   140009a70:	2e 3f                	cs (bad) 
   140009a72:	41 56                	push   r14
   140009a74:	65 78 63             	gs js  0x140009ada
   140009a77:	65 70 74             	gs jo  0x140009aee
   140009a7a:	69 6f 6e 40 73 74 64 	imul   ebp,DWORD PTR [rdi+0x6e],0x64747340
   140009a81:	40                   	rex
   140009a82:	40 00 00             	rex add BYTE PTR [rax],al
   140009a85:	00 00                	add    BYTE PTR [rax],al
   140009a87:	00 18                	add    BYTE PTR [rax],bl
   140009a89:	42 00 80 01 00 00 00 	rex.X add BYTE PTR [rax+0x1],al
	...
   140009a98:	2e 3f                	cs (bad) 
   140009a9a:	41 56                	push   r14
   140009a9c:	62 61 64 5f 61       	(bad)
   140009aa1:	72 72                	jb     0x140009b15
   140009aa3:	61                   	(bad)  
   140009aa4:	79 5f                	jns    0x140009b05
   140009aa6:	6e                   	outs   dx,BYTE PTR ds:[rsi]
   140009aa7:	65 77 5f             	gs ja  0x140009b09
   140009aaa:	6c                   	ins    BYTE PTR es:[rdi],dx
   140009aab:	65 6e                	outs   dx,BYTE PTR gs:[rsi]
   140009aad:	67 74 68             	addr32 je 0x140009b18
   140009ab0:	40 73 74             	rex jae 0x140009b27
   140009ab3:	64 40                	fs rex
   140009ab5:	40 00 00             	rex add BYTE PTR [rax],al
   140009ab8:	18 42 00             	sbb    BYTE PTR [rdx+0x0],al
   140009abb:	80 01 00             	add    BYTE PTR [rcx],0x0
	...
   140009ac6:	00 00                	add    BYTE PTR [rax],al
   140009ac8:	2e 3f                	cs (bad) 
   140009aca:	41 56                	push   r14
   140009acc:	74 79                	je     0x140009b47
   140009ace:	70 65                	jo     0x140009b35
   140009ad0:	5f                   	pop    rdi
   140009ad1:	69 6e 66 6f 40 40 00 	imul   ebp,DWORD PTR [rsi+0x66],0x40406f
	...
   140009be8:	00 10                	add    BYTE PTR [rax],dl
   140009bea:	00 00                	add    BYTE PTR [rax],al
   140009bec:	10 14 00             	adc    BYTE PTR [rax+rax*1],dl
   140009bef:	00 38                	add    BYTE PTR [rax],bh
   140009bf1:	4c 00 00             	rex.WR add BYTE PTR [rax],r8b
   140009bf4:	10 14 00             	adc    BYTE PTR [rax+rax*1],dl
   140009bf7:	00 6f 16             	add    BYTE PTR [rdi+0x16],ch
   140009bfa:	00 00                	add    BYTE PTR [rax],al
   140009bfc:	50                   	push   rax
   140009bfd:	4c 00 00             	rex.WR add BYTE PTR [rax],r8b
   140009c00:	90                   	nop
   140009c01:	16                   	(bad)  
   140009c02:	00 00                	add    BYTE PTR [rax],al
   140009c04:	e2 16                	loop   0x140009c1c
   140009c06:	00 00                	add    BYTE PTR [rax],al
   140009c08:	68 4c 00 00 f0       	push   0xfffffffff000004c
   140009c0d:	16                   	(bad)  
   140009c0e:	00 00                	add    BYTE PTR [rax],al
   140009c10:	3f                   	(bad)  
   140009c11:	17                   	(bad)  
   140009c12:	00 00                	add    BYTE PTR [rax],al
   140009c14:	68 4c 00 00 40       	push   0x4000004c
   140009c19:	17                   	(bad)  
   140009c1a:	00 00                	add    BYTE PTR [rax],al
   140009c1c:	73 17                	jae    0x140009c35
   140009c1e:	00 00                	add    BYTE PTR [rax],al
   140009c20:	74 4c                	je     0x140009c6e
   140009c22:	00 00                	add    BYTE PTR [rax],al
   140009c24:	a0 17 00 00 e3 17 00 	movabs al,ds:0x7c000017e3000017
   140009c2b:	00 7c 
   140009c2d:	4c 00 00             	rex.WR add BYTE PTR [rax],r8b
   140009c30:	40 18 00             	rex sbb BYTE PTR [rax],al
   140009c33:	00 60 18             	add    BYTE PTR [rax+0x18],ah
   140009c36:	00 00                	add    BYTE PTR [rax],al
   140009c38:	88 4c 00 00          	mov    BYTE PTR [rax+rax*1+0x0],cl
   140009c3c:	60                   	(bad)  
   140009c3d:	18 00                	sbb    BYTE PTR [rax],al
   140009c3f:	00 9d 18 00 00 74    	add    BYTE PTR [rbp+0x74000018],bl
   140009c45:	4c 00 00             	rex.WR add BYTE PTR [rax],r8b
   140009c48:	a0 18 00 00 dd 18 00 	movabs al,ds:0x74000018dd000018
   140009c4f:	00 74 
   140009c51:	4c 00 00             	rex.WR add BYTE PTR [rax],r8b
   140009c54:	e0 18                	loopne 0x140009c6e
   140009c56:	00 00                	add    BYTE PTR [rax],al
   140009c58:	f2 18 00             	repnz sbb BYTE PTR [rax],al
   140009c5b:	00 90 4c 00 00 00    	add    BYTE PTR [rax+0x4c],dl
   140009c61:	19 00                	sbb    DWORD PTR [rax],eax
   140009c63:	00 04 1d 00 00 98 4c 	add    BYTE PTR [rbx*1+0x4c980000],al
   140009c6a:	00 00                	add    BYTE PTR [rax],al
   140009c6c:	10 1d 00 00 7d 1f    	adc    BYTE PTR [rip+0x1f7d0000],bl        # 0x15f7d9c72
   140009c72:	00 00                	add    BYTE PTR [rax],al
   140009c74:	dc 4c 00 00          	fmul   QWORD PTR [rax+rax*1+0x0]
   140009c78:	80 1f 00             	sbb    BYTE PTR [rdi],0x0
   140009c7b:	00 99 1f 00 00 90    	add    BYTE PTR [rcx-0x6fffffe1],bl
   140009c81:	4c 00 00             	rex.WR add BYTE PTR [rax],r8b
   140009c84:	a0 1f 00 00 ff 1f 00 	movabs al,ds:0x7400001fff00001f
   140009c8b:	00 74 
   140009c8d:	4c 00 00             	rex.WR add BYTE PTR [rax],r8b
   140009c90:	00 20                	add    BYTE PTR [rax],ah
   140009c92:	00 00                	add    BYTE PTR [rax],al
   140009c94:	66 20 00             	data16 and BYTE PTR [rax],al
   140009c97:	00 f4                	add    ah,dh
   140009c99:	4c 00 00             	rex.WR add BYTE PTR [rax],r8b
   140009c9c:	66 20 00             	data16 and BYTE PTR [rax],al
   140009c9f:	00 52 21             	add    BYTE PTR [rdx+0x21],dl
   140009ca2:	00 00                	add    BYTE PTR [rax],al
   140009ca4:	04 4d                	add    al,0x4d
   140009ca6:	00 00                	add    BYTE PTR [rax],al
   140009ca8:	52                   	push   rdx
   140009ca9:	21 00                	and    DWORD PTR [rax],eax
   140009cab:	00 59 21             	add    BYTE PTR [rcx+0x21],bl
   140009cae:	00 00                	add    BYTE PTR [rax],al
   140009cb0:	18 4d 00             	sbb    BYTE PTR [rbp+0x0],cl
   140009cb3:	00 59 21             	add    BYTE PTR [rcx+0x21],bl
   140009cb6:	00 00                	add    BYTE PTR [rax],al
   140009cb8:	5f                   	pop    rdi
   140009cb9:	21 00                	and    DWORD PTR [rax],eax
   140009cbb:	00 2c 4d 00 00 5f 21 	add    BYTE PTR [rcx*2+0x215f0000],ch
   140009cc2:	00 00                	add    BYTE PTR [rax],al
   140009cc4:	65 21 00             	and    DWORD PTR gs:[rax],eax
   140009cc7:	00 18                	add    BYTE PTR [rax],bl
   140009cc9:	4d 00 00             	rex.WRB add BYTE PTR [r8],r8b
   140009ccc:	80 21 00             	and    BYTE PTR [rcx],0x0
   140009ccf:	00 9e 21 00 00 40    	add    BYTE PTR [rsi+0x40000021],bl
   140009cd5:	4d 00 00             	rex.WRB add BYTE PTR [r8],r8b
   140009cd8:	a0 21 00 00 dc 21 00 	movabs al,ds:0x74000021dc000021
   140009cdf:	00 74 
   140009ce1:	4c 00 00             	rex.WR add BYTE PTR [rax],r8b
   140009ce4:	e4 21                	in     al,0x21
   140009ce6:	00 00                	add    BYTE PTR [rax],al
   140009ce8:	0f 22 00             	mov    cr0,rax
   140009ceb:	00 74 4c 00          	add    BYTE PTR [rsp+rcx*2+0x0],dh
   140009cef:	00 10                	add    BYTE PTR [rax],dl
   140009cf1:	22 00                	and    al,BYTE PTR [rax]
   140009cf3:	00 60 22             	add    BYTE PTR [rax+0x22],ah
   140009cf6:	00 00                	add    BYTE PTR [rax],al
   140009cf8:	90                   	nop
   140009cf9:	4c 00 00             	rex.WR add BYTE PTR [rax],r8b
   140009cfc:	60                   	(bad)  
   140009cfd:	22 00                	and    al,BYTE PTR [rax]
   140009cff:	00 76 23             	add    BYTE PTR [rsi+0x23],dh
   140009d02:	00 00                	add    BYTE PTR [rax],al
   140009d04:	44                   	rex.R
   140009d05:	4d 00 00             	rex.WRB add BYTE PTR [r8],r8b
   140009d08:	78 23                	js     0x140009d2d
   140009d0a:	00 00                	add    BYTE PTR [rax],al
   140009d0c:	fc                   	cld    
   140009d0d:	23 00                	and    eax,DWORD PTR [rax]
   140009d0f:	00 88 4d 00 00 fc    	add    BYTE PTR [rax-0x3ffffb3],cl
   140009d15:	23 00                	and    eax,DWORD PTR [rax]
   140009d17:	00 2d 25 00 00 dc    	add    BYTE PTR [rip+0xffffffffdc000025],ch        # 0x11c009d42
   140009d1d:	4d 00 00             	rex.WRB add BYTE PTR [r8],r8b
   140009d20:	30 25 00 00 6d 25    	xor    BYTE PTR [rip+0x256d0000],ah        # 0x1656d9d26
   140009d26:	00 00                	add    BYTE PTR [rax],al
   140009d28:	0c 4e                	or     al,0x4e
   140009d2a:	00 00                	add    BYTE PTR [rax],al
   140009d2c:	70 25                	jo     0x140009d53
   140009d2e:	00 00                	add    BYTE PTR [rax],al
   140009d30:	a4                   	movs   BYTE PTR es:[rdi],BYTE PTR ds:[rsi]
   140009d31:	25 00 00 74 4c       	and    eax,0x4c740000
   140009d36:	00 00                	add    BYTE PTR [rax],al
   140009d38:	a4                   	movs   BYTE PTR es:[rdi],BYTE PTR ds:[rsi]
   140009d39:	25 00 00 76 26       	and    eax,0x26760000
   140009d3e:	00 00                	add    BYTE PTR [rax],al
   140009d40:	1c 4e                	sbb    al,0x4e
   140009d42:	00 00                	add    BYTE PTR [rax],al
   140009d44:	78 26                	js     0x140009d6c
   140009d46:	00 00                	add    BYTE PTR [rax],al
   140009d48:	e9 26 00 00 24       	jmp    0x164009d73
   140009d4d:	4e 00 00             	rex.WRX add BYTE PTR [rax],r8b
   140009d50:	0c 27                	or     al,0x27
   140009d52:	00 00                	add    BYTE PTR [rax],al
   140009d54:	2c 27                	sub    al,0x27
   140009d56:	00 00                	add    BYTE PTR [rax],al
   140009d58:	88 4c 00 00          	mov    BYTE PTR [rax+rax*1+0x0],cl
   140009d5c:	34 27                	xor    al,0x27
   140009d5e:	00 00                	add    BYTE PTR [rax],al
   140009d60:	e0 27                	loopne 0x140009d89
   140009d62:	00 00                	add    BYTE PTR [rax],al
   140009d64:	30 4e 00             	xor    BYTE PTR [rsi+0x0],cl
   140009d67:	00 fc                	add    ah,bh
   140009d69:	27                   	(bad)  
   140009d6a:	00 00                	add    BYTE PTR [rax],al
   140009d6c:	17                   	(bad)  
   140009d6d:	28 00                	sub    BYTE PTR [rax],al
   140009d6f:	00 90 4c 00 00 18    	add    BYTE PTR [rax+0x1800004c],dl
   140009d75:	28 00                	sub    BYTE PTR [rax],al
   140009d77:	00 51 28             	add    BYTE PTR [rcx+0x28],dl
   140009d7a:	00 00                	add    BYTE PTR [rax],al
   140009d7c:	90                   	nop
   140009d7d:	4c 00 00             	rex.WR add BYTE PTR [rax],r8b
   140009d80:	54                   	push   rsp
   140009d81:	28 00                	sub    BYTE PTR [rax],al
   140009d83:	00 88 28 00 00 90    	add    BYTE PTR [rax-0x6fffffd8],cl
   140009d89:	4c 00 00             	rex.WR add BYTE PTR [rax],r8b
   140009d8c:	88 28                	mov    BYTE PTR [rax],ch
   140009d8e:	00 00                	add    BYTE PTR [rax],al
   140009d90:	9d                   	popf   
   140009d91:	28 00                	sub    BYTE PTR [rax],al
   140009d93:	00 90 4c 00 00 a0    	add    BYTE PTR [rax-0x5fffffb4],dl
   140009d99:	28 00                	sub    BYTE PTR [rax],al
   140009d9b:	00 c8                	add    al,cl
   140009d9d:	28 00                	sub    BYTE PTR [rax],al
   140009d9f:	00 90 4c 00 00 c8    	add    BYTE PTR [rax-0x37ffffb4],dl
   140009da5:	28 00                	sub    BYTE PTR [rax],al
   140009da7:	00 dd                	add    ch,bl
   140009da9:	28 00                	sub    BYTE PTR [rax],al
   140009dab:	00 90 4c 00 00 e0    	add    BYTE PTR [rax-0x1fffffb4],dl
   140009db1:	28 00                	sub    BYTE PTR [rax],al
   140009db3:	00 40 29             	add    BYTE PTR [rax+0x29],al
   140009db6:	00 00                	add    BYTE PTR [rax],al
   140009db8:	64 4e 00 00          	rex.WRX add BYTE PTR fs:[rax],r8b
   140009dbc:	40 29 00             	rex sub DWORD PTR [rax],eax
   140009dbf:	00 70 29             	add    BYTE PTR [rax+0x29],dh
   140009dc2:	00 00                	add    BYTE PTR [rax],al
   140009dc4:	90                   	nop
   140009dc5:	4c 00 00             	rex.WR add BYTE PTR [rax],r8b
   140009dc8:	70 29                	jo     0x140009df3
   140009dca:	00 00                	add    BYTE PTR [rax],al
   140009dcc:	84 29                	test   BYTE PTR [rcx],ch
   140009dce:	00 00                	add    BYTE PTR [rax],al
   140009dd0:	90                   	nop
   140009dd1:	4c 00 00             	rex.WR add BYTE PTR [rax],r8b
   140009dd4:	84 29                	test   BYTE PTR [rcx],ch
   140009dd6:	00 00                	add    BYTE PTR [rax],al
   140009dd8:	cd 29                	int    0x29
   140009dda:	00 00                	add    BYTE PTR [rax],al
   140009ddc:	74 4c                	je     0x140009e2a
   140009dde:	00 00                	add    BYTE PTR [rax],al
   140009de0:	d0 29                	shr    BYTE PTR [rcx],1
   140009de2:	00 00                	add    BYTE PTR [rax],al
   140009de4:	5b                   	pop    rbx
   140009de5:	2a 00                	sub    al,BYTE PTR [rax]
   140009de7:	00 74 4c 00          	add    BYTE PTR [rsp+rcx*2+0x0],dh
   140009deb:	00 5c 2a 00          	add    BYTE PTR [rdx+rbp*1+0x0],bl
   140009def:	00 f4                	add    ah,dh
   140009df1:	2a 00                	sub    al,BYTE PTR [rax]
   140009df3:	00 3c 4e             	add    BYTE PTR [rsi+rcx*2],bh
   140009df6:	00 00                	add    BYTE PTR [rax],al
   140009df8:	f4                   	hlt    
   140009df9:	2a 00                	sub    al,BYTE PTR [rax]
   140009dfb:	00 18                	add    BYTE PTR [rax],bl
   140009dfd:	2b 00                	sub    eax,DWORD PTR [rax]
   140009dff:	00 74 4c 00          	add    BYTE PTR [rsp+rcx*2+0x0],dh
   140009e03:	00 18                	add    BYTE PTR [rax],bl
   140009e05:	2b 00                	sub    eax,DWORD PTR [rax]
   140009e07:	00 41 2b             	add    BYTE PTR [rcx+0x2b],al
   140009e0a:	00 00                	add    BYTE PTR [rax],al
   140009e0c:	74 4c                	je     0x140009e5a
   140009e0e:	00 00                	add    BYTE PTR [rax],al
   140009e10:	54                   	push   rsp
   140009e11:	2b 00                	sub    eax,DWORD PTR [rax]
   140009e13:	00 9f 2c 00 00 78    	add    BYTE PTR [rdi+0x7800002c],bl
   140009e19:	4e 00 00             	rex.WRX add BYTE PTR [rax],r8b
   140009e1c:	a0 2c 00 00 dc 2c 00 	movabs al,ds:0x7c00002cdc00002c
   140009e23:	00 7c 
   140009e25:	4c 00 00             	rex.WR add BYTE PTR [rax],r8b
   140009e28:	dc 2c 00             	fsubr  QWORD PTR [rax+rax*1]
   140009e2b:	00 18                	add    BYTE PTR [rax],bl
   140009e2d:	2d 00 00 7c 4c       	sub    eax,0x4c7c0000
   140009e32:	00 00                	add    BYTE PTR [rax],al
   140009e34:	1c 2d                	sbb    al,0x2d
   140009e36:	00 00                	add    BYTE PTR [rax],al
   140009e38:	bd 2e 00 00 88       	mov    ebp,0x8800002e
   140009e3d:	4e 00 00             	rex.WRX add BYTE PTR [rax],r8b
   140009e40:	48 2f                	rex.W (bad) 
   140009e42:	00 00                	add    BYTE PTR [rax],al
   140009e44:	65 2f                	gs (bad) 
   140009e46:	00 00                	add    BYTE PTR [rax],al
   140009e48:	90                   	nop
   140009e49:	4c 00 00             	rex.WR add BYTE PTR [rax],r8b
   140009e4c:	68 2f 00 00 c3       	push   0xffffffffc300002f
   140009e51:	2f                   	(bad)  
   140009e52:	00 00                	add    BYTE PTR [rax],al
   140009e54:	a4                   	movs   BYTE PTR es:[rdi],BYTE PTR ds:[rsi]
   140009e55:	4e 00 00             	rex.WRX add BYTE PTR [rax],r8b
   140009e58:	c4                   	(bad)  
   140009e59:	2f                   	(bad)  
   140009e5a:	00 00                	add    BYTE PTR [rax],al
   140009e5c:	43 30 00             	rex.XB xor BYTE PTR [r8],al
   140009e5f:	00 ac 4e 00 00 70 30 	add    BYTE PTR [rsi+rcx*2+0x30700000],ch
   140009e66:	00 00                	add    BYTE PTR [rax],al
   140009e68:	72 30                	jb     0x140009e9a
   140009e6a:	00 00                	add    BYTE PTR [rax],al
   140009e6c:	98                   	cwde   
   140009e6d:	4e 00 00             	rex.WRX add BYTE PTR [rax],r8b
   140009e70:	90                   	nop
   140009e71:	30 00                	xor    BYTE PTR [rax],al
   140009e73:	00 96 30 00 00 a0    	add    BYTE PTR [rsi-0x5fffffd0],dl
   140009e79:	4e 00 00             	rex.WRX add BYTE PTR [rax],r8b
   140009e7c:	ac                   	lods   al,BYTE PTR ds:[rsi]
   140009e7d:	30 00                	xor    BYTE PTR [rax],al
   140009e7f:	00 c3                	add    bl,al
   140009e81:	30 00                	xor    BYTE PTR [rax],al
   140009e83:	00 80 4d 00 00 c3    	add    BYTE PTR [rax-0x3cffffb3],al
   140009e89:	30 00                	xor    BYTE PTR [rax],al
   140009e8b:	00 dc                	add    ah,bl
   140009e8d:	30 00                	xor    BYTE PTR [rax],al
   140009e8f:	00 80 4d 00 00 dc    	add    BYTE PTR [rax-0x23ffffb3],al
   140009e95:	30 00                	xor    BYTE PTR [rax],al
   140009e97:	00 f0                	add    al,dh
   140009e99:	30 00                	xor    BYTE PTR [rax],al
   140009e9b:	00 80 4d 00 00 f0    	add    BYTE PTR [rax-0xfffffb3],al
   140009ea1:	30 00                	xor    BYTE PTR [rax],al
   140009ea3:	00 26                	add    BYTE PTR [rsi],ah
   140009ea5:	31 00                	xor    DWORD PTR [rax],eax
   140009ea7:	00 04 4e             	add    BYTE PTR [rsi+rcx*2],al
   140009eaa:	00 00                	add    BYTE PTR [rax],al
   140009eac:	26 31 00             	es xor DWORD PTR [rax],eax
   140009eaf:	00 3e                	add    BYTE PTR [rsi],bh
   140009eb1:	31 00                	xor    DWORD PTR [rax],eax
   140009eb3:	00 5c 4e 00          	add    BYTE PTR [rsi+rcx*2+0x0],bl
	...
   140009ff3:	00 00                	add    BYTE PTR [rax],al
   140009ff5:	00 01                	add    BYTE PTR [rcx],al
   140009ff7:	00 18                	add    BYTE PTR [rax],bl
   140009ff9:	00 00                	add    BYTE PTR [rax],al
   140009ffb:	00 18                	add    BYTE PTR [rax],bl
   140009ffd:	00 00                	add    BYTE PTR [rax],al
   140009fff:	80 00 00             	add    BYTE PTR [rax],0x0
	...
   14000a00e:	01 00                	add    DWORD PTR [rax],eax
   14000a010:	02 00                	add    al,BYTE PTR [rax]
   14000a012:	00 00                	add    BYTE PTR [rax],al
   14000a014:	30 00                	xor    BYTE PTR [rax],al
   14000a016:	00 80 00 00 00 00    	add    BYTE PTR [rax+0x0],al
	...
   14000a024:	00 00                	add    BYTE PTR [rax],al
   14000a026:	01 00                	add    DWORD PTR [rax],eax
   14000a028:	09 04 00             	or     DWORD PTR [rax+rax*1],eax
   14000a02b:	00 48 00             	add    BYTE PTR [rax+0x0],cl
   14000a02e:	00 00                	add    BYTE PTR [rax],al
   14000a030:	60                   	(bad)  
   14000a031:	80 00 00             	add    BYTE PTR [rax],0x0
   14000a034:	91                   	xchg   ecx,eax
	...
   14000a045:	00 00                	add    BYTE PTR [rax],al
   14000a047:	00 3c 3f             	add    BYTE PTR [rdi+rdi*1],bh
   14000a04a:	78 6d                	js     0x14000a0b9
   14000a04c:	6c                   	ins    BYTE PTR es:[rdi],dx
   14000a04d:	20 76 65             	and    BYTE PTR [rsi+0x65],dh
   14000a050:	72 73                	jb     0x14000a0c5
   14000a052:	69 6f 6e 3d 27 31 2e 	imul   ebp,DWORD PTR [rdi+0x6e],0x2e31273d
   14000a059:	30 27                	xor    BYTE PTR [rdi],ah
   14000a05b:	20 65 6e             	and    BYTE PTR [rbp+0x6e],ah
   14000a05e:	63 6f 64             	movsxd ebp,DWORD PTR [rdi+0x64]
   14000a061:	69 6e 67 3d 27 55 54 	imul   ebp,DWORD PTR [rsi+0x67],0x5455273d
   14000a068:	46 2d 38 27 20 73    	rex.RX sub eax,0x73202738
   14000a06e:	74 61                	je     0x14000a0d1
   14000a070:	6e                   	outs   dx,BYTE PTR ds:[rsi]
   14000a071:	64 61                	fs (bad) 
   14000a073:	6c                   	ins    BYTE PTR es:[rdi],dx
   14000a074:	6f                   	outs   dx,DWORD PTR ds:[rsi]
   14000a075:	6e                   	outs   dx,BYTE PTR ds:[rsi]
   14000a076:	65 3d 27 79 65 73    	gs cmp eax,0x73657927
   14000a07c:	27                   	(bad)  
   14000a07d:	3f                   	(bad)  
   14000a07e:	3e 0d 0a 3c 61 73    	ds or  eax,0x73613c0a
   14000a084:	73 65                	jae    0x14000a0eb
   14000a086:	6d                   	ins    DWORD PTR es:[rdi],dx
   14000a087:	62                   	(bad)  
   14000a088:	6c                   	ins    BYTE PTR es:[rdi],dx
   14000a089:	79 20                	jns    0x14000a0ab
   14000a08b:	78 6d                	js     0x14000a0fa
   14000a08d:	6c                   	ins    BYTE PTR es:[rdi],dx
   14000a08e:	6e                   	outs   dx,BYTE PTR ds:[rsi]
   14000a08f:	73 3d                	jae    0x14000a0ce
   14000a091:	27                   	(bad)  
   14000a092:	75 72                	jne    0x14000a106
   14000a094:	6e                   	outs   dx,BYTE PTR ds:[rsi]
   14000a095:	3a 73 63             	cmp    dh,BYTE PTR [rbx+0x63]
   14000a098:	68 65 6d 61 73       	push   0x73616d65
   14000a09d:	2d 6d 69 63 72       	sub    eax,0x7263696d
   14000a0a2:	6f                   	outs   dx,DWORD PTR ds:[rsi]
   14000a0a3:	73 6f                	jae    0x14000a114
   14000a0a5:	66 74 2d             	data16 je 0x14000a0d5
   14000a0a8:	63 6f 6d             	movsxd ebp,DWORD PTR [rdi+0x6d]
   14000a0ab:	3a 61 73             	cmp    ah,BYTE PTR [rcx+0x73]
   14000a0ae:	6d                   	ins    DWORD PTR es:[rdi],dx
   14000a0af:	2e 76 31             	cs jbe 0x14000a0e3
   14000a0b2:	27                   	(bad)  
   14000a0b3:	20 6d 61             	and    BYTE PTR [rbp+0x61],ch
   14000a0b6:	6e                   	outs   dx,BYTE PTR ds:[rsi]
   14000a0b7:	69 66 65 73 74 56 65 	imul   esp,DWORD PTR [rsi+0x65],0x65567473
   14000a0be:	72 73                	jb     0x14000a133
   14000a0c0:	69 6f 6e 3d 27 31 2e 	imul   ebp,DWORD PTR [rdi+0x6e],0x2e31273d
   14000a0c7:	30 27                	xor    BYTE PTR [rdi],ah
   14000a0c9:	3e 0d 0a 3c 2f 61    	ds or  eax,0x612f3c0a
   14000a0cf:	73 73                	jae    0x14000a144
   14000a0d1:	65 6d                	gs ins DWORD PTR es:[rdi],dx
   14000a0d3:	62                   	(bad)  
   14000a0d4:	6c                   	ins    BYTE PTR es:[rdi],dx
   14000a0d5:	79 3e                	jns    0x14000a115
   14000a0d7:	0d 0a 00 00 00       	or     eax,0xa
	...
   14000a1e8:	00 40 00             	add    BYTE PTR [rax+0x0],al
   14000a1eb:	00 3c 00             	add    BYTE PTR [rax+rax*1],bh
   14000a1ee:	00 00                	add    BYTE PTR [rax],al
   14000a1f0:	a0 a1 a8 a1 b0 a1 b8 	movabs al,ds:0xc0a1b8a1b0a1a8a1
   14000a1f7:	a1 c0 
   14000a1f9:	a1 10 a2 18 a2 28 a2 	movabs eax,ds:0xa230a228a218a210
   14000a200:	30 a2 
   14000a202:	38 a2 40 a2 48 a2    	cmp    BYTE PTR [rdx-0x5db75dc0],ah
   14000a208:	50                   	push   rax
   14000a209:	a2 58 a2 60 a2 78 a2 	movabs ds:0xa280a278a260a258,al
   14000a210:	80 a2 
   14000a212:	88 a2 08 a6 20 a6    	mov    BYTE PTR [rdx-0x59df59f8],ah
   14000a218:	28 a6 b0 a6 c8 a6    	sub    BYTE PTR [rsi-0x59375950],ah
   14000a21e:	d0 a6 d8 a6 e0 a6    	shl    BYTE PTR [rsi-0x591f5928],1
   14000a224:	00 60 00             	add    BYTE PTR [rax+0x0],ah
   14000a227:	00 10                	add    BYTE PTR [rax],dl
   14000a229:	00 00                	add    BYTE PTR [rax],al
   14000a22b:	00 50 a0             	add    BYTE PTR [rax-0x60],dl
   14000a22e:	78 a0                	js     0x14000a1d0
   14000a230:	a0 a0 d0 a0 00 00 00 	movabs al,ds:0xa0d0a0
   14000a237:	00 00 
	...
   14000a3e5:	00 00                	add    BYTE PTR [rax],al
   14000a3e7:	00 64 61 76          	add    BYTE PTR [rcx+riz*2+0x76],ah
   14000a3eb:	65 00 00             	add    BYTE PTR gs:[rax],al
   14000a3ee:	00 00                	add    BYTE PTR [rax],al
   14000a3f0:	3c 3f                	cmp    al,0x3f
   14000a3f2:	78 6d                	js     0x14000a461
   14000a3f4:	6c                   	ins    BYTE PTR es:[rdi],dx
   14000a3f5:	20 76 65             	and    BYTE PTR [rsi+0x65],dh
   14000a3f8:	72 73                	jb     0x14000a46d
   14000a3fa:	69 6f 6e 3d 27 31 2e 	imul   ebp,DWORD PTR [rdi+0x6e],0x2e31273d
   14000a401:	30 27                	xor    BYTE PTR [rdi],ah
   14000a403:	20 65 6e             	and    BYTE PTR [rbp+0x6e],ah
   14000a406:	63 6f 64             	movsxd ebp,DWORD PTR [rdi+0x64]
   14000a409:	69 6e 67 3d 27 55 54 	imul   ebp,DWORD PTR [rsi+0x67],0x5455273d
   14000a410:	46 2d 38 27 20 73    	rex.RX sub eax,0x73202738
   14000a416:	74 61                	je     0x14000a479
   14000a418:	6e                   	outs   dx,BYTE PTR ds:[rsi]
   14000a419:	64 61                	fs (bad) 
   14000a41b:	6c                   	ins    BYTE PTR es:[rdi],dx
   14000a41c:	6f                   	outs   dx,DWORD PTR ds:[rsi]
   14000a41d:	6e                   	outs   dx,BYTE PTR ds:[rsi]
   14000a41e:	65 3d 27 79 65 73    	gs cmp eax,0x73657927
   14000a424:	27                   	(bad)  
   14000a425:	3f                   	(bad)  
   14000a426:	3e 0d 0a 3c 61 73    	ds or  eax,0x73613c0a
   14000a42c:	73 65                	jae    0x14000a493
   14000a42e:	6d                   	ins    DWORD PTR es:[rdi],dx
   14000a42f:	62                   	(bad)  
   14000a430:	6c                   	ins    BYTE PTR es:[rdi],dx
   14000a431:	79 20                	jns    0x14000a453
   14000a433:	78 6d                	js     0x14000a4a2
   14000a435:	6c                   	ins    BYTE PTR es:[rdi],dx
   14000a436:	6e                   	outs   dx,BYTE PTR ds:[rsi]
   14000a437:	73 3d                	jae    0x14000a476
   14000a439:	27                   	(bad)  
   14000a43a:	75 72                	jne    0x14000a4ae
   14000a43c:	6e                   	outs   dx,BYTE PTR ds:[rsi]
   14000a43d:	3a 73 63             	cmp    dh,BYTE PTR [rbx+0x63]
   14000a440:	68 65 6d 61 73       	push   0x73616d65
   14000a445:	2d 6d 69 63 72       	sub    eax,0x7263696d
   14000a44a:	6f                   	outs   dx,DWORD PTR ds:[rsi]
   14000a44b:	73 6f                	jae    0x14000a4bc
   14000a44d:	66 74 2d             	data16 je 0x14000a47d
   14000a450:	63 6f 6d             	movsxd ebp,DWORD PTR [rdi+0x6d]
   14000a453:	3a 61 73             	cmp    ah,BYTE PTR [rcx+0x73]
   14000a456:	6d                   	ins    DWORD PTR es:[rdi],dx
   14000a457:	2e 76 31             	cs jbe 0x14000a48b
   14000a45a:	27                   	(bad)  
   14000a45b:	20 6d 61             	and    BYTE PTR [rbp+0x61],ch
   14000a45e:	6e                   	outs   dx,BYTE PTR ds:[rsi]
   14000a45f:	69 66 65 73 74 56 65 	imul   esp,DWORD PTR [rsi+0x65],0x65567473
   14000a466:	72 73                	jb     0x14000a4db
   14000a468:	69 6f 6e 3d 27 31 2e 	imul   ebp,DWORD PTR [rdi+0x6e],0x2e31273d
   14000a46f:	30 27                	xor    BYTE PTR [rdi],ah
   14000a471:	3e 0d 0a 20 20 3c    	ds or  eax,0x3c20200a
   14000a477:	74 72                	je     0x14000a4eb
   14000a479:	75 73                	jne    0x14000a4ee
   14000a47b:	74 49                	je     0x14000a4c6
   14000a47d:	6e                   	outs   dx,BYTE PTR ds:[rsi]
   14000a47e:	66 6f                	outs   dx,WORD PTR ds:[rsi]
   14000a480:	20 78 6d             	and    BYTE PTR [rax+0x6d],bh
   14000a483:	6c                   	ins    BYTE PTR es:[rdi],dx
   14000a484:	6e                   	outs   dx,BYTE PTR ds:[rsi]
   14000a485:	73 3d                	jae    0x14000a4c4
   14000a487:	22 75 72             	and    dh,BYTE PTR [rbp+0x72]
   14000a48a:	6e                   	outs   dx,BYTE PTR ds:[rsi]
   14000a48b:	3a 73 63             	cmp    dh,BYTE PTR [rbx+0x63]
   14000a48e:	68 65 6d 61 73       	push   0x73616d65
   14000a493:	2d 6d 69 63 72       	sub    eax,0x7263696d
   14000a498:	6f                   	outs   dx,DWORD PTR ds:[rsi]
   14000a499:	73 6f                	jae    0x14000a50a
   14000a49b:	66 74 2d             	data16 je 0x14000a4cb
   14000a49e:	63 6f 6d             	movsxd ebp,DWORD PTR [rdi+0x6d]
   14000a4a1:	3a 61 73             	cmp    ah,BYTE PTR [rcx+0x73]
   14000a4a4:	6d                   	ins    DWORD PTR es:[rdi],dx
   14000a4a5:	2e 76 33             	cs jbe 0x14000a4db
   14000a4a8:	22 3e                	and    bh,BYTE PTR [rsi]
   14000a4aa:	0d 0a 20 20 20       	or     eax,0x2020200a
   14000a4af:	20 3c 73             	and    BYTE PTR [rbx+rsi*2],bh
   14000a4b2:	65 63 75 72          	movsxd esi,DWORD PTR gs:[rbp+0x72]
   14000a4b6:	69 74 79 3e 0d 0a 20 	imul   esi,DWORD PTR [rcx+rdi*2+0x3e],0x20200a0d
   14000a4bd:	20 
   14000a4be:	20 20                	and    BYTE PTR [rax],ah
   14000a4c0:	20 20                	and    BYTE PTR [rax],ah
   14000a4c2:	3c 72                	cmp    al,0x72
   14000a4c4:	65 71 75             	gs jno 0x14000a53c
   14000a4c7:	65 73 74             	gs jae 0x14000a53e
   14000a4ca:	65 64 50             	gs fs push rax
   14000a4cd:	72 69                	jb     0x14000a538
   14000a4cf:	76 69                	jbe    0x14000a53a
   14000a4d1:	6c                   	ins    BYTE PTR es:[rdi],dx
   14000a4d2:	65 67 65 73 3e       	gs addr32 gs jae 0x14000a515
   14000a4d7:	0d 0a 20 20 20       	or     eax,0x2020200a
   14000a4dc:	20 20                	and    BYTE PTR [rax],ah
   14000a4de:	20 20                	and    BYTE PTR [rax],ah
   14000a4e0:	20 3c 72             	and    BYTE PTR [rdx+rsi*2],bh
   14000a4e3:	65 71 75             	gs jno 0x14000a55b
   14000a4e6:	65 73 74             	gs jae 0x14000a55d
   14000a4e9:	65 64 45 78 65       	gs fs rex.RB js 0x14000a553
   14000a4ee:	63 75 74             	movsxd esi,DWORD PTR [rbp+0x74]
   14000a4f1:	69 6f 6e 4c 65 76 65 	imul   ebp,DWORD PTR [rdi+0x6e],0x6576654c
   14000a4f8:	6c                   	ins    BYTE PTR es:[rdi],dx
   14000a4f9:	20 6c 65 76          	and    BYTE PTR [rbp+riz*2+0x76],ch
   14000a4fd:	65 6c                	gs ins BYTE PTR es:[rdi],dx
   14000a4ff:	3d 27 61 73 49       	cmp    eax,0x49736127
   14000a504:	6e                   	outs   dx,BYTE PTR ds:[rsi]
   14000a505:	76 6f                	jbe    0x14000a576
   14000a507:	6b 65 72 27          	imul   esp,DWORD PTR [rbp+0x72],0x27
   14000a50b:	20 75 69             	and    BYTE PTR [rbp+0x69],dh
   14000a50e:	41 63 63 65          	movsxd esp,DWORD PTR [r11+0x65]
   14000a512:	73 73                	jae    0x14000a587
   14000a514:	3d 27 66 61 6c       	cmp    eax,0x6c616627
   14000a519:	73 65                	jae    0x14000a580
   14000a51b:	27                   	(bad)  
   14000a51c:	20 2f                	and    BYTE PTR [rdi],ch
   14000a51e:	3e 0d 0a 20 20 20    	ds or  eax,0x2020200a
   14000a524:	20 20                	and    BYTE PTR [rax],ah
   14000a526:	20 3c 2f             	and    BYTE PTR [rdi+rbp*1],bh
   14000a529:	72 65                	jb     0x14000a590
   14000a52b:	71 75                	jno    0x14000a5a2
   14000a52d:	65 73 74             	gs jae 0x14000a5a4
   14000a530:	65 64 50             	gs fs push rax
   14000a533:	72 69                	jb     0x14000a59e
   14000a535:	76 69                	jbe    0x14000a5a0
   14000a537:	6c                   	ins    BYTE PTR es:[rdi],dx
   14000a538:	65 67 65 73 3e       	gs addr32 gs jae 0x14000a57b
   14000a53d:	0d 0a 20 20 20       	or     eax,0x2020200a
   14000a542:	20 3c 2f             	and    BYTE PTR [rdi+rbp*1],bh
   14000a545:	73 65                	jae    0x14000a5ac
   14000a547:	63 75 72             	movsxd esi,DWORD PTR [rbp+0x72]
   14000a54a:	69 74 79 3e 0d 0a 20 	imul   esi,DWORD PTR [rcx+rdi*2+0x3e],0x20200a0d
   14000a551:	20 
   14000a552:	3c 2f                	cmp    al,0x2f
   14000a554:	74 72                	je     0x14000a5c8
   14000a556:	75 73                	jne    0x14000a5cb
   14000a558:	74 49                	je     0x14000a5a3
   14000a55a:	6e                   	outs   dx,BYTE PTR ds:[rsi]
   14000a55b:	66 6f                	outs   dx,WORD PTR ds:[rsi]
   14000a55d:	3e 0d 0a 3c 2f 61    	ds or  eax,0x612f3c0a
   14000a563:	73 73                	jae    0x14000a5d8
   14000a565:	65 6d                	gs ins DWORD PTR es:[rdi],dx
   14000a567:	62                   	(bad)  
   14000a568:	6c                   	ins    BYTE PTR es:[rdi],dx
   14000a569:	79 3e                	jns    0x14000a5a9
   14000a56b:	0d 0a 00 00 00       	or     eax,0xa
